******************************************************************************
            TI ARM Clang Linker PC v3.2.2                      
******************************************************************************
>> Linked Tue Mar 25 22:04:56 2025

OUTPUT FILE NAME:   <network_terminal_CC3220S_LAUNCHXL_tirtos7_ticlang.out>
ENTRY POINT SYMBOL: "_c_int00"  address: 2001c6f9


MEMORY CONFIGURATION

         name            origin    length      used     unused   attr    fill
----------------------  --------  ---------  --------  --------  ----  --------
  SRAM0                 20000000   00004000  00000400  00003c00  RW X
  SRAM                  20004000   0003c000  0002d36c  0000ec94  RW X
  LOG_DATA              90000000   00040000  00000000  00040000  R   
  LOG_PTR               94000008   00040000  00000000  00040000  R   


SEGMENT ALLOCATION MAP

run origin  load origin   length   init length attrs members
----------  ----------- ---------- ----------- ----- -------
20003c00    20003c00    00000400   00000000    rw-
  20003c00    20003c00    00000400   00000000    rw- .stack
20004000    20004000    00021858   00019854    r-x
  20004000    20004000    0000003c   0000003c    r-- .resetVecs
  20004040    20004040    00019814   00019814    r-x .text
  2001d858    2001d858    00008000   00000000    r-- .priheap
20025860    20025860    00006d40   00006d40    r--
  20025860    20025860    00006d40   00006d40    r-- .rodata
2002c800    2002c800    00003e95   00000000    rw-
  2002c800    2002c800    0000292f   00000000    rw- .bss
  2002f130    2002f130    00001565   00000000    rw- .data
20030b0c    20030b0c    00000c3c   00000c3c    r--
  20030b0c    20030b0c    00000c3c   00000c3c    r-- .cinit


SECTION ALLOCATION MAP

 output                                  attributes/
section   page    origin      length       input sections
--------  ----  ----------  ----------   ----------------
.resetVecs 
*          0    20004000    0000003c     
                  20004000    0000003c     ti_sysbios_config.o (.resetVecs)

.text      0    20004040    00019814     
                  20004040    00000a36     simplelink.a : driver.obj (.text._SlDrvMsgRead)
                  20004a76    00000002     ti_sysbios_config.o (.text.BIOS_nullFunc)
                  20004a78    000009d8     libc.a : _printfi.c.obj (.text:__TI_printfi)
                  20005450    00000750     transceiver_cmd.o (.text.TxTask)
                  20005ba0    0000059c     cmd_parser.o (.text.ParseCreateFilterCmd)
                  2000613c    0000050a     simplelink.a : sl_socket.obj (.text._SlSocketHandleAsync_Select)
                  20006646    000004b8     driverlib.a : prcm.obj (.text.PRCMCC3200MCUInit)
                  20006afe    00000414     simplelink.a : driver.obj (.text._SlDrvMsgWrite)
                  20006f12    00000002     ti_drivers_config.o (.text.Board_initHook)
                  20006f14    000003e4     drivers_cc32xx.a : PowerCC32XX.c.obj (.text.Power_sleep)
                  200072f8    000003b2     simplelink.a : driver.obj (.text._SlDrvReleasePoolObj)
                  200076aa    000003ae                  : driver.obj (.text._SlDrvRxHdrRead)
                  20007a58    000003a4                  : driver.obj (.text._SlDrvWaitForPoolObj)
                  20007dfc    0000036a                  : wlanconfig.obj (.text.sl_WifiConfig)
                  20008166    0000032e                  : wlan.obj (.text.sl_WlanProfileAdd)
                  20008494    000002f6                  : driver.obj (.text._SlDrvDataReadOp)
                  2000878a    00000002     network_terminal.o (.text.SimpleLinkHttpServerEventHandler)
                  2000878c    000002f0     cmd_parser.o (.text.ParseStartApCmd)
                  20008a7c    000002e0     cmd_parser.o (.text.ParseConnectCmd)
                  20008d5c    000002dc     simplelink.a : wlan.obj (.text.sl_WlanConnect)
                  20009038    00000008     drivers_cc32xx.a : SPICC32XXDMA.c.obj (.text.OUTLINED_FUNCTION_0)
                  20009040    000002dc     libc.a : strcmp_t2.S.obj (.text:strcmp)
                  2000931c    000002c8     socket_cmd.o (.text.TCPServer)
                  200095e4    000002be     simplelink.a : driver.obj (.text._SlDrvDataWriteOp)
                  200098a2    00000002     network_terminal.o (.text.SimpleLinkNetAppRequestEventHandler)
                  200098a4    000002b0     cmd_parser.o (.text.ParseRecvCmd)
                  20009b54    000002aa     simplelink.a : driver.obj (.text._SlDrvMsgReadCmdCtx)
                  20009dfe    000002a2                  : driver.obj (.text._SlDrvDriverCBInit)
                  2000a0a0    000002a0     cmd_parser.o (.text.ParseProfileCmd)
                  2000a340    0000027c     socket_cmd.o (.text.UDPServer)
                  2000a5bc    00000278     cmd_parser.o (.text.ParseSendCmd)
                  2000a834    00000272     simplelink.a : device.obj (.text.sl_Stop)
                  2000aaa6    00000002     network_terminal.o (.text.SimpleLinkNetAppRequestMemFreeEventHandler)
                  2000aaa8    00000260     network_terminal.o (.text.SimpleLinkWlanEventHandler)
                  2000ad08    00000258     simplelink.a : netapp.obj (.text.sl_NetAppPing)
                  2000af60    00000240     socket_cmd.o (.text.UDPClient)
                  2000b1a0    00000240     radio_tool.o (.text.radioTool_TxStart)
                  2000b3e0    0000022c     socket_cmd.o (.text.drawRxHist)
                  2000b60c    00000228     libc.a : _printfi.c.obj (.text._pconv_a)
                  2000b834    00000226     simplelink.a : netapp.obj (.text._SlNetAppEventHandler)
                  2000ba5a    00000222     drivers_cc32xx.a : UART2CC32XX.c.obj (.text.UART2CC32XX_hwiIntFxn)
                  2000bc7c    00000218     simplelink.a : driver.obj (.text._SlDrvReleaseAllActivePendingPoolObj)
                  2000be94    00000208     socket_cmd.o (.text.TCPClient)
                  2000c09c    00000202     simplelink.a : sl_socket.obj (.text.sl_Accept)
                  2000c29e    00000002     network_terminal.o (.text.SimpleLinkSockEventHandler)
                  2000c2a0    000001e8     libc.a : _printfi.c.obj (.text._pconv_g)
                  2000c488    000001de     simplelink.a : driver.obj (.text._SlDrvFindAndSetActiveObj)
                  2000c666    00000002     drivers_cc32xx.a : UART2CC32XX.c.obj (.text.UART2CC32XX_eventCallback)
                  2000c668    000001d4     wlan_cmd.o (.text.cmdWlanStartApCallback)
                  2000c83c    000001d2     drivers_cc32xx.a : UART2.c.obj (.text.UART2_readTimeout)
                  2000ca0e    00000002     libclang_rt.builtins.a : aeabi_div0.c.obj (.text.__aeabi_ldiv0)
                  2000ca10    000001cc     drivers_cc32xx.a : UART2CC32XX.c.obj (.text.UART2_open)
                  2000cbdc    000001c8     cmd_parser.o (.text.ParsemDNSAdvertiseCmd)
                  2000cda4    000001bc     cmd_parser.o (.text.ParsePingCmd)
                  2000cf60    000001bc     transceiver_cmd.o (.text.RxTask)
                  2000d11c    000001bc     wlan_cmd.o (.text.printExtScanResults)
                  2000d2d8    000001bc     simplelink.a : sl_socket.obj (.text.sl_Connect)
                  2000d494    000001b6     libclang_rt.builtins.a : adddf3.S.obj (.text.adddf3_subdf3)
                  2000d64a    00000002     libc.a : _lock.c.obj (.text._nop)
                  2000d64c    000001b0     cmd_parser.o (.text.ParseSetPolicyCmd)
                  2000d7fc    000001b0     wlan_cmd.o (.text.cmdWlanConnectCallback)
                  2000d9ac    000001ac     simplelink.a : netapp.obj (.text.sl_NetAppDnsGetHostByName)
                  2000db58    000001a4     drivers_cc32xx.a : SPICC32XXDMA.c.obj (.text.SPICC32XXDMA_transfer)
                  2000dcfc    000001a4     netapp_cmd.o (.text.mDNSQueryCallback)
                  2000dea0    000001a0     network_terminal.o (.text.DisplayAppBanner)
                  2000e040    0000019c     simplelink.a : sl_socket.obj (.text.sl_RecvFrom)
                  2000e1dc    00000194                  : driver.obj (.text._SlDrvMsgReadSpawnCtx)
                  2000e370    00000184     wlan_cmd.o (.text.cmdEnableWoWLANCallback)
                  2000e4f4    00000180     simplelink.a : sl_socket.obj (.text._SlDrvGetNextTimeoutValue)
                  2000e674    0000017a                  : driver.obj (.text._SlDrvDriverCBDeinit)
                  2000e7ee    0000017a                  : driver.obj (.text._SlSpawnMsgListInsert)
                  2000e968    00000178     wlan_cmd.o (.text.printScanResults)
                  2000eae0    00000176     simplelink.a : device.obj (.text.sl_Start)
                  2000ec56    00000174     drivers_cc32xx.a : UART2.c.obj (.text.UART2_writeTimeoutBlocking)
                  2000edca    0000016a     simplelink.a : driver.obj (.text._SlDrvObjGlobalLockWaitForever)
                  2000ef34    00000168     cmd_parser.o (.text.ParseEnableWoWLANCmd)
                  2000f09c    00000166     simplelink.a : driver.obj (.text._SlDrvAsyncEventGenericHandler)
                  2000f202    00000162                  : driver.obj (.text._SlDrvClassifyRxMsg)
                  2000f364    0000015e                  : wlan.obj (.text.sl_WlanProfileGet)
                  2000f4c2    00000002     ti_sysbios_config.o (.text._system_pre_init)
                  2000f4c4    00000158     cmd_parser.o (.text.ParsemDNSQueryCmd)
                  2000f61c    00000154     simplelink.a : driver.obj (.text._SlDrvCmdOp)
                  2000f770    0000014e                  : netapp.obj (.text.sl_NetAppDnsGetHostByService)
                  2000f8be    00000002     ti_sysbios_config.o (.text.ti_sysbios_runtime_System_exitSpin)
                  2000f8c0    0000014c     drivers_cc32xx.a : SPICC32XXDMA.c.obj (.text.configDMA)
                  2000fa0c    00000144     wlan_cmd.o (.text.setP2Pparams)
                  2000fb50    00000140     drivers_cc32xx.a : GPIOCC32XX.c.obj (.text.GPIO_setConfig)
                  2000fc90    00000140     simplelink.a : device.obj (.text._SlDeviceEventHandler)
                  2000fdd0    0000013c     uart_term.o (.text.GetCmd)
                  2000ff0c    0000013c     libc.a : _printfi.c.obj (.text.fcvt)
                  20010048    00000138     drivers_cc32xx.a : SPICC32XXDMA.c.obj (.text.SPICC32XXDMA_open)
                  20010180    00000138     libc.a : strtol.c.obj (.text.strtol)
                  200102b8    00000136     libclang_rt.builtins.a : divdf3.S.obj (.text.__divdf3)
                  200103ee    00000002     --HOLE-- [fill = 0]
                  200103f0    00000134     wlan_cmd.o (.text.cmdP2PModecallback)
                  20010524    00000130     network_terminal.o (.text.SimpleLinkNetAppEventHandler)
                  20010654    0000012e     simplelink.a : driver.obj (.text._SlDrvWaitForInternalAsyncEvent)
                  20010782    00000002     --HOLE-- [fill = 0]
                  20010784    0000012c     wlan_cmd.o (.text.cmdSetPolicyCallback)
                  200108b0    0000012a     simplelink.a : sl_socket.obj (.text.sl_SendTo)
                  200109da    00000128                  : netapp.obj (.text._SlNetAppHandleAsync_DnsGetHostByService)
                  20010b02    00000002     --HOLE-- [fill = 0]
                  20010b04    0000011c     libc.a : strtoul.c.obj (.text.strtoul)
                  20010c20    0000011a     drivers_cc32xx.a : UART2.c.obj (.text.UART2_writeTimeoutNonblocking)
                  20010d3a    00000002     --HOLE-- [fill = 0]
                  20010d3c    00000118     libc.a : _printfi.c.obj (.text._pconv_e)
                  20010e54    00000118     wlan_cmd.o (.text.cmdWlanStopApCallback)
                  20010f6c    00000116     simplelink.a : sl_socket.obj (.text.sl_Close)
                  20011082    00000112     driverlib.a : udma.obj (.text.uDMAChannelTransferSet)
                  20011194    0000010c     netapp_cmd.o (.text.cmdPingCallback)
                  200112a0    0000010c     wlan_cmd.o (.text.p2pConnect)
                  200113ac    00000108     ti_sysbios_config.o (.text.PowerCC32XX_sleepPolicy)
                  200114b4    00000108     wlan_cmd.o (.text.cmdConnectedStationsCallback)
                  200115bc    00000106     simplelink.a : device.obj (.text._SlDeviceHandleAsync_InitComplete)
                  200116c2    00000106                  : netapp.obj (.text._SlNetAppMDNSRegisterUnregisterService)
                  200117c8    00000104     network_terminal.o (.text.mainThread)
                  200118cc    00000104     ti_sysbios_config.o (.text.ti_sysbios_family_arm_m3_Timer_Instance_init)
                  200119d0    000000fe     network_terminal.o (.text.ipv6AddressParse)
                  20011ace    00000002     --HOLE-- [fill = 0]
                  20011ad0    000000fc     libclang_rt.builtins.a : muldf3.S.obj (.text.__muldf3)
                  20011bcc    000000fc     network_terminal.o (.text.initAppVariables)
                  20011cc8    000000fc     netapp_cmd.o (.text.mDNSAdvertiseCallback)
                  20011dc4    000000fa     libclang_rt.builtins.a : addsf3.S.obj (.text)
                  20011ebe    00000002     --HOLE-- [fill = 0]
                  20011ec0    000000f8     wlan_cmd.o (.text.setStaticIPConfig)
                  20011fb8    000000f8     transceiver_cmd.o (.text.showModCodeMenu)
                  200120b0    000000f6     simplelink.a : wlan.obj (.text.sl_WlanProvisioning)
                  200121a6    00000002     --HOLE-- [fill = 0]
                  200121a8    000000f4     ti_sysbios_config.o (.text.ti_sysbios_knl_Semaphore_pend)
                  2001229c    000000f0     cmd_parser.o (.text.ParseCountycodeCmd)
                  2001238c    000000ee     simplelink.a : driver.obj (.text._SlDrvRemoveFromList)
                  2001247a    000000ec                  : driver.obj (.text._SlDrvDriverIsApiAllowed)
                  20012566    00000002     --HOLE-- [fill = 0]
                  20012568    000000ec     sysbios.a : Hwi_asm_gcc.s.obj (.text.ti_sysbios_family_arm_m3_Hwi_dispatch)
                  20012654    000000ea     simplelink.a : netapp.obj (.text.sl_NetAppGetServiceList)
                  2001273e    000000ea                  : netcfg.obj (.text.sl_NetCfgGet)
                  20012828    000000e8     drivers_cc32xx.a : UART2CC32XX.c.obj (.text.UART2_close)
                  20012910    000000e4     simplelink.a : device.obj (.text.sl_DeviceGet)
                  200129f4    000000e2                  : wlan.obj (.text.sl_WlanGet)
                  20012ad6    000000e0                  : cc_pal.obj (.text.NwpPowerOff)
                  20012bb6    00000002     --HOLE-- [fill = 0]
                  20012bb8    000000e0     cmd_parser.o (.text.ParseScanCmd)
                  20012c98    000000e0     wlan_cmd.o (.text.cmdGetProfilecallback)
                  20012d78    000000dc     simplelink.a : netapp.obj (.text._SlNetAppHandleAsync_NetAppReceive)
                  20012e54    000000dc     wlan_cmd.o (.text.cmdAddProfilecallback)
                  20012f30    000000da     simplelink.a : sl_socket.obj (.text.sl_Send)
                  2001300a    000000da                  : wlan.obj (.text.sl_WlanRxStatGet)
                  200130e4    000000d8     cmd_parser.o (.text.ParseTriggeredRoamingEnableCmd)
                  200131bc    000000d8     ti_sysbios_config.o (.text.pthread_create)
                  20013294    000000d8     ti_sysbios_config.o (.text.ti_sysbios_family_arm_m3_Hwi_excFillContext)
                  2001336c    000000d4     drivers_cc32xx.a : SPICC32XXDMA.c.obj (.text.SPICC32XXDMA_transferCancel)
                  20013440    000000d4     simplelink.a : cc_pal.obj (.text.Semaphore_pend_handle)
                  20013514    000000d4     ti_sysbios_config.o (.text.clock_gettime)
                  200135e8    000000d4     network_terminal.o (.text.cmd_prompt)
                  200136bc    000000ce     simplelink.a : netapp.obj (.text._SlNetAppHandleAsync_DnsGetHostByName)
                  2001378a    000000ce                  : sl_socket.obj (.text.sl_Bind)
                  20013858    000000cc     drivers_cc32xx.a : UART2CC32XX.c.obj (.text.UART2Support_dmaStartRx)
                  20013924    000000ca     simplelink.a : driver.obj (.text._SlDrvHandleFatalError)
                  200139ee    000000ca                  : netapp.obj (.text._SlNetAppHandleAsync_PingResponse)
                  20013ab8    000000c8                  : wlan.obj (.text.sl_WlanRxFilterAdd)
                  20013b80    000000c6     driverlib.a : prcm.obj (.text.PRCMPeripheralClockGet)
                  20013c46    000000c6     simplelink.a : netapp.obj (.text.sl_NetAppGet)
                  20013d0c    000000c4     drivers_cc32xx.a : UART2CC32XX.c.obj (.text.UART2CC32XX_initHw)
                  20013dd0    000000c4     simplelink.a : driver.obj (.text._SlDrvIsTimeoutExpired)
                  20013e94    000000c4     network_terminal.o (.text.cmdHelpCallback)
                  20013f58    000000c4     transceiver_cmd.o (.text.cmdTranceiverModecallback)
                  2001401c    000000c4     libc.a : s_scalbn.c.obj (.text.scalbn)
                  200140e0    000000c0     simplelink.a : netutil.obj (.text._SlNetUtilHandleAsync_Cmd)
                  200141a0    000000c0     wlan_cmd.o (.text.printCreateFilterUsage)
                  20014260    000000be     simplelink.a : netapp.obj (.text._SlNetAppSendResponse)
                  2001431e    00000002     --HOLE-- [fill = 0]
                  20014320    000000bc     socket_cmd.o (.text.cmdRecvCallback)
                  200143dc    000000bc     wlan_cmd.o (.text.cmdScanCallback)
                  20014498    000000ba     simplelink.a : wlan.obj (.text.sl_WlanRxStatStart)
                  20014552    00000002     --HOLE-- [fill = 0]
                  20014554    000000b8     drivers_cc32xx.a : UART2CC32XX.c.obj (.text.UART2Support_dmaStartTx)
                  2001460c    000000b8     simplelink.a : driver.obj (.text._SlSpawnMsgListProcess)
                  200146c4    000000b8     socket_cmd.o (.text.printRecvUsage)
                  2001477c    000000b8     simplelink.a : wlan.obj (.text.sl_WlanRxStatStop)
                  20014834    000000b8     ti_sysbios_config.o (.text.ti_sysbios_knl_Task_Instance_finalize)
                  200148ec    000000b8     ti_sysbios_config.o (.text.ti_sysbios_knl_Task_setPri)
                  200149a4    000000b4     cmd_parser.o (.text.ParseSoftRoamingEnableCmd)
                  20014a58    000000b4     drivers_cc32xx.a : SPICC32XXDMA.c.obj (.text.SPICC32XXDMA_close)
                  20014b0c    000000b4     driverlib.a : spi.obj (.text.SPIConfigSetExpClk)
                  20014bc0    000000b4     simplelink.a : cc_pal.obj (.text.spi_Read)
                  20014c74    000000b4                  : cc_pal.obj (.text.spi_Write)
                  20014d28    000000b2                  : driver.obj (.text._SlDrvProtectAsyncRespSetting)
                  20014dda    00000002     --HOLE-- [fill = 0]
                  20014ddc    000000b0     libclang_rt.builtins.a : udivmoddi4.S.obj (.text)
                  20014e8c    000000ac     driverlib.a : gpio.obj (.text.GPIOIntTypeSet)
                  20014f38    000000ac     simplelink.a : sl_socket.obj (.text._SlSocketHandleAsync_Close)
                  20014fe4    000000ac                  : sl_socket.obj (.text._SlSocketHandleAsync_Connect)
                  20015090    000000ac                  : wlan.obj (.text.sl_WlanGetExtNetworkList)
                  2001513c    000000ac                  : wlan.obj (.text.sl_WlanGetNetworkList)
                  200151e8    000000a4     wlan_cmd.o (.text.cmdP2PStopcallback)
                  2001528c    000000a4     simplelink.a : sl_socket.obj (.text.sl_Recv)
                  20015330    000000a4                  : sl_socket.obj (.text.sl_SetSockOpt)
                  200153d4    000000a4     ti_sysbios_config.o (.text.ti_sysbios_knl_Task_Instance_init)
                  20015478    000000a4     ti_sysbios_config.o (.text.ti_sysbios_knl_Task_sleep)
                  2001551c    000000a2     driverlib.a : pin.obj (.text.PinConfigSet)
                  200155be    00000002     --HOLE-- [fill = 0]
                  200155c0    000000a0     socket_cmd.o (.text.printSendUsage)
                  20015660    0000009c     simplelink.a : sl_socket.obj (.text._SlSocketHandleAsync_Accept)
                  200156fc    0000009a                  : netapp.obj (.text.sl_NetAppSet)
                  20015796    0000009a                  : netcfg.obj (.text.sl_NetCfgSet)
                  20015830    0000009a                  : wlan.obj (.text.sl_WlanSet)
                  200158ca    00000098                  : device.obj (.text._SlDeviceHandleAsync_Stop)
                  20015962    00000002     --HOLE-- [fill = 0]
                  20015964    00000098     wlan_cmd.o (.text.printWlanConnectUsage)
                  200159fc    00000098     wlan_cmd.o (.text.printWlanStartApUsage)
                  20015a94    00000098     simplelink.a : device.obj (.text.sl_DeviceSet)
                  20015b2c    00000004     ti_sysbios_config.o (.text.HwiP_destruct)
                  20015b30    00000096     drivers_cc32xx.a : PowerCC32XX_ticlang.asm.obj (.text)
                  20015bc6    00000002     --HOLE-- [fill = 0]
                  20015bc8    00000094     wlan_cmd.o (.text.cmdAntSelectionEnablecallback)
                  20015c5c    00000094     wlan_cmd.o (.text.cmdCoexEnablecallback)
                  20015cf0    00000094     simplelink.a : sl_socket.obj (.text.sl_Socket)
                  20015d84    00000094                  : wlan.obj (.text.sl_WlanPolicySet)
                  20015e18    00000094     drivers_cc32xx.a : SPICC32XXDMA.c.obj (.text.spiHwiFxn)
                  20015eac    00000092     driverlib.a : spi.obj (.text.SPIIntStatus)
                  20015f3e    00000002     --HOLE-- [fill = 0]
                  20015f40    00000092     libclang_rt.builtins.a : divsf3.S.obj (.text.__divsf3)
                  20015fd2    00000092     driverlib.a : udma.obj (.text.uDMAChannelAttributeDisable)
                  20016064    00000090     drivers_cc32xx.a : GPIOCC32XX.c.obj (.text.GPIO_init)
                  200160f4    00000090     cmd_parser.o (.text.mDNScreateServiceName)
                  20016184    00000090     wlan_cmd.o (.text.printFrameSubTyps)
                  20016214    00000090     netapp_cmd.o (.text.printmDNSAdvertiseUsage)
                  200162a4    0000008e     driverlib.a : prcm.obj (.text.PRCMSysResetCauseGet)
                  20016332    00000002     --HOLE-- [fill = 0]
                  20016334    0000008c     wlan_cmd.o (.text.printAddProfileUsage)
                  200163c0    0000008c     wlan_cmd.o (.text.printSetPolicyUsage)
                  2001644c    0000008c     uart_term.o (.text.pushCommand)
                  200164d8    00000088     drivers_cc32xx.a : PowerCC32XX.c.obj (.text.PowerCC32XX_configureWakeup)
                  20016560    00000088     radio_tool.o (.text.radioTool_Open)
                  200165e8    00000084     wlan_cmd.o (.text.cmdSoftRoamingEnablecallback)
                  2001666c    00000084     drivers_cc32xx.a : SPICC32XXDMA.c.obj (.text.initHw)
                  200166f0    00000084     netapp_cmd.o (.text.printPingUsage)
                  20016774    00000080     cmd_parser.o (.text.ParsegetProfileCmd)
                  200167f4    00000080     ti_sysbios_config.o (.text._pthread_abstime2ticks)
                  20016874    00000080     wlan_cmd.o (.text.cmdAntSelectionDisablecallback)
                  200168f4    00000080     wlan_cmd.o (.text.cmdCoexDisablecallback)
                  20016974    0000007c     simplelink.a : netapp.obj (.text._SlNetAppSendTokenValue)
                  200169f0    0000007c     netapp_cmd.o (.text.printmDNSQueryUsage)
                  20016a6c    0000007c     network_terminal.o (.text.showAvailableCmd)
                  20016ae8    0000007c     ti_sysbios_config.o (.text.ti_sysbios_family_arm_m3_Hwi_postInit)
                  20016b64    0000007a     libclang_rt.builtins.a : mulsf3.S.obj (.text.__mulsf3)
                  20016bde    00000002     --HOLE-- [fill = 0]
                  20016be0    00000078     drivers_cc32xx.a : PowerCC32XX.c.obj (.text.Power_init)
                  20016c58    00000078     simplelink.a : driver.obj (.text._SlDrvRxIrqHandler)
                  20016cd0    00000078     ti_sysbios_config.o (.text._pthread_removeThreadKeys)
                  20016d48    00000078     wlan_cmd.o (.text.cmdCountrycodecallback)
                  20016dc0    00000078     socket_cmd.o (.text.cmdSendCallback)
                  20016e38    00000078     wlan_cmd.o (.text.cmdTriggeredRoamingEnablecallback)
                  20016eb0    00000078     wlan_cmd.o (.text.printEnableWoWLANUsage)
                  20016f28    00000078     simplelink.a : netapp.obj (.text.sl_NetAppMDNSRegisterService)
                  20016fa0    00000078     ti_sysbios_config.o (.text.ti_sysbios_knl_Task_postInit)
                  20017018    00000076     simplelink.a : cc_pal.obj (.text.spi_Open)
                  2001708e    00000074     driverlib.a : prcm.obj (.text.PRCMHibernateWakeUpGPIOSelect)
                  20017102    00000074                 : uart.obj (.text.UARTConfigSetExpClk)
                  20017176    00000074     simplelink.a : driver.obj (.text._SlSpawnMsgListGetCount)
                  200171ea    00000002     --HOLE-- [fill = 0]
                  200171ec    00000074     ti_sysbios_config.o (.text.acquireMutex)
                  20017260    00000074     network_terminal.o (.text.ipv4AddressParse)
                  200172d4    00000074     wlan_cmd.o (.text.printScanUsage)
                  20017348    00000074     transceiver_cmd.o (.text.showMenu)
                  200173bc    00000074     ti_sysbios_config.o (.text.ti_sysbios_family_arm_m3_Hwi_initNVIC)
                  20017430    00000074     ti_sysbios_config.o (.text.ti_sysbios_knl_Swi_restoreHwi)
                  200174a4    00000072     simplelink.a : device.obj (.text._SlDeviceHandleResetRequestInternally)
                  20017516    00000072                  : spawn.obj (.text._SlInternalSpawn)
                  20017588    00000072                  : sl_socket.obj (.text.sl_Listen)
                  200175fa    00000002     --HOLE-- [fill = 0]
                  200175fc    00000070     wlan_cmd.o (.text.cmdCreateFilterCallback)
                  2001766c    00000070     ti_sysbios_config.o (.text.ti_sysbios_family_arm_m3_Hwi_Instance_init)
                  200176dc    00000070     ti_sysbios_config.o (.text.ti_sysbios_heaps_HeapMem_allocUnprotected)
                  2001774c    00000070     ti_sysbios_config.o (.text.ti_sysbios_knl_Task_startup)
                  200177bc    00000070     libc.a : copy_decompress_lzss.c.obj (.text:decompress:lzss)
                  2001782c    0000006e     libclang_rt.builtins.a : comparedf2.c.obj (.text.__gedf2)
                  2001789a    00000002     --HOLE-- [fill = 0]
                  2001789c    0000006e                            : comparedf2.c.obj (.text.__ledf2)
                  2001790a    00000002     --HOLE-- [fill = 0]
                  2001790c    0000006c     cmd_parser.o (.text.ParseCmd)
                  20017978    0000006c     driverlib.a : pin.obj (.text.PinLockLevelSet)
                  200179e4    0000006c     drivers_cc32xx.a : PowerCC32XX.c.obj (.text.Power_setDependency)
                  20017a50    0000006c     uart_term.o (.text.Report)
                  20017abc    0000006c     driverlib.a : spi.obj (.text.SPIIntDisable)
                  20017b28    0000006c     drivers_cc32xx.a : UDMACC32XX.c.obj (.text.UDMACC32XX_open)
                  20017b94    0000006c     simplelink.a : driver.obj (.text._SlDrvCmdSend_noLock)
                  20017c00    0000006c     libc.a : _printfi.c.obj (.text._mcpy)
                  20017c6c    0000006c     drivers_cc32xx.a : GPIOCC32XX.c.obj (.text.powerNotifyFxn)
                  20017cd8    0000006c     network_terminal.o (.text.sem_wait_timeout)
                  20017d44    0000006c     ti_sysbios_config.o (.text.ti_sysbios_family_arm_m3_Hwi_dispatchC)
                  20017db0    0000006c     ti_sysbios_config.o (.text.ti_sysbios_hal_Seconds_getTime)
                  20017e1c    0000006c     ti_sysbios_config.o (.text.ti_sysbios_knl_Clock_workFunc)
                  20017e88    0000006a     driverlib.a : prcm.obj (.text.PRCMPeripheralReset)
                  20017ef2    00000068                 : spi.obj (.text.SPIIntEnable)
                  20017f5a    00000068     network_terminal.o (.text.macAddressParse)
                  20017fc2    00000002     --HOLE-- [fill = 0]
                  20017fc4    00000068     transceiver_cmd.o (.text.showCCAThreshHoldMenu)
                  2001802c    00000068     transceiver_cmd.o (.text.showTxMenu)
                  20018094    00000068     ti_sysbios_config.o (.text.ti_sysbios_knl_Clock_init)
                  200180fc    00000068     ti_sysbios_config.o (.text.ti_sysbios_knl_Swi_run)
                  20018164    00000066     simplelink.a : wlan.obj (.text.sl_WlanProfileDel)
                  200181ca    00000066                  : wlan.obj (.text.sl_WlanSetMode)
                  20018230    00000064                  : cc_pal.obj (.text.NwpRegisterInterruptHandler)
                  20018294    00000064     netapp_cmd.o (.text.SimpleLinkPingReport)
                  200182f8    00000064     wlan_cmd.o (.text.printCountrycodeeUsage)
                  2001835c    00000064     wlan_cmd.o (.text.printSoftRoamingEnableUsage)
                  200183c0    00000064     wlan_cmd.o (.text.printTriggeredRoamingEnableUsage)
                  20018424    00000064     ti_sysbios_config.o (.text.pthread_cancel)
                  20018488    00000064     radio_tool.o (.text.radioTool_RxStart)
                  200184ec    00000064     transceiver_cmd.o (.text.showPHYConfMenu)
                  20018550    00000064     ti_sysbios_config.o (.text.ti_sysbios_hal_Seconds_setTime)
                  200185b4    00000064     ti_sysbios_config.o (.text.ti_sysbios_knl_Idle_init)
                  20018618    00000062     driverlib.a : spi.obj (.text.SPIIntClear)
                  2001867a    00000062     simplelink.a : eventreg.obj (.text._SlNetAppHttpServerHdlr)
                  200186dc    00000062                  : eventreg.obj (.text._SlNetAppRequestHdlr)
                  2001873e    00000002     --HOLE-- [fill = 0]
                  20018740    00000062     libclang_rt.builtins.a : aeabi_dcmp.S.obj (.text.__aeabi_dcmp)
                  200187a2    00000002     --HOLE-- [fill = 0]
                  200187a4    00000060     drivers_cc32xx.a : GPIOCC32XX.c.obj (.text.GPIO_write)
                  20018804    00000060     uart_term.o (.text.ReplaceLine)
                  20018864    00000060     drivers_cc32xx.a : UART2CC32XX.c.obj (.text.UART2Support_dmaStopTx)
                  200188c4    00000060     simplelink.a : driver.obj (.text._SlDrvSyncObjWaitTimeout)
                  20018924    00000060                  : netapp.obj (.text.sl_NetAppStart)
                  20018984    00000060                  : netapp.obj (.text.sl_NetAppStop)
                  200189e4    00000060     ti_sysbios_config.o (.text.ti_sysbios_knl_Semaphore_post)
                  20018a44    00000060     ti_sysbios_config.o (.text.ti_sysbios_knl_Swi_schedule)
                  20018aa4    0000005c     driverlib.a : flash.obj (.text.FlashDisable)
                  20018b00    0000005c                 : prcm.obj (.text.PRCMHibernateWakeupSourceDisable)
                  20018b5c    0000005c     simplelink.a : driver.obj (.text._SlDrvUpdateApiInProgress)
                  20018bb8    0000005c                  : eventreg.obj (.text._SlIsEventRegistered)
                  20018c14    0000005c     libc.a : _printfi.c.obj (.text._pconv_f)
                  20018c70    0000005c     network_terminal.o (.text.hexbyteStrtoASCII)
                  20018ccc    0000005c     wlan_cmd.o (.text.printAntSelectionEnableUsage)
                  20018d28    0000005c     wlan_cmd.o (.text.printCoexEnableUsage)
                  20018d84    0000005c     wlan_cmd.o (.text.printGetProfileUsage)
                  20018de0    0000005c     ti_sysbios_config.o (.text.pthread_exit)
                  20018e3c    0000005a     driverlib.a : prcm.obj (.text.PRCMPeripheralClkEnable)
                  20018e96    0000005a     simplelink.a : eventreg.obj (.text._SlDeviceFatalErrorEvtHdlr)
                  20018ef0    0000005a                  : eventreg.obj (.text._SlDeviceGeneralEvtHdlr)
                  20018f4a    0000005a                  : driver.obj (.text._SlDrvGlobalObjUnLock)
                  20018fa4    0000005a                  : eventreg.obj (.text._SlNetAppEvtHdlr)
                  20018ffe    0000005a                  : eventreg.obj (.text._SlNetAppRequestMemFree)
                  20019058    0000005a                  : eventreg.obj (.text._SlSockEvtHdlr)
                  200190b2    0000005a                  : eventreg.obj (.text._SlWlanEvtHdlr)
                  2001910c    00000058     network_terminal.o (.text.SimpleLinkFatalErrorEventHandler)
                  20019164    00000058     simplelink.a : driver.obj (.text._SlDrvBasicCmd)
                  200191bc    00000058                  : sl_socket.obj (.text._SlDrvClearCtrlSocket)
                  20019214    00000058     wlan_cmd.o (.text.cmdDeleteFilterCallback)
                  2001926c    00000058     main_tirtos.o (.text.main)
                  200192c4    00000058     wlan_cmd.o (.text.printP2PStartUsage)
                  2001931c    00000058     wlan_cmd.o (.text.printP2PStopUsage)
                  20019374    00000058     transceiver_cmd.o (.text.showPreambleMenu)
                  200193cc    00000058     simplelink.a : netapp.obj (.text.sl_NetAppMDNSUnRegisterService)
                  20019424    00000056     driverlib.a : prcm.obj (.text.PRCMLPDSEnter)
                  2001947a    00000056     libc.a : _ltoa.c.obj (.text.__TI_ltoa)
                  200194d0    00000054     ti_sysbios_config.o (.text.HwiP_create)
                  20019524    00000054     drivers_cc32xx.a : PowerCC32XX.c.obj (.text.PowerCC32XX_setParkState)
                  20019578    00000054                      : PowerCC32XX.c.obj (.text.Power_releaseDependency)
                  200195cc    00000054     network_terminal.o (.text.PrintIPAddress)
                  20019620    00000054     driverlib.a : spi.obj (.text.SPIDmaMaskGet)
                  20019674    00000054     simplelink.a : driver.obj (.text._SlFindAndReleasePendingCmd)
                  200196c8    00000054     wlan_cmd.o (.text.cmdDisableFilterCallback)
                  2001971c    00000054     wlan_cmd.o (.text.cmdEnableFilterCallback)
                  20019770    00000054     libc.a : s_frexp.c.obj (.text.frexp)
                  200197c4    00000054     ti_sysbios_config.o (.text.pthread_join)
                  20019818    00000054     ti_sysbios_config.o (.text.ti_sysbios_family_arm_m3_Timer_start)
                  2001986c    00000052     simplelink.a : sl_socket.obj (.text._SlSocketBuildAddress)
                  200198be    00000002     --HOLE-- [fill = 0]
                  200198c0    00000050     drivers_cc32xx.a : GPIOCC32XX.c.obj (.text.GPIO_hwiIntFxn)
                  20019910    00000050     simplelink.a : cc_pal.obj (.text.NwpWaitForShutDownInd)
                  20019960    00000050     driverlib.a : prcm.obj (.text.PRCMHibernateWakeupSourceEnable)
                  200199b0    00000050     simplelink.a : driver.obj (.text._SlDrvCmdSend_noWait)
                  20019a00    00000050     transceiver_cmd.o (.text.is5GhzChannel)
                  20019a50    00000050     wlan_cmd.o (.text.printAPTransitionDisableUsage)
                  20019aa0    00000050     wlan_cmd.o (.text.printAPTransitionEnableUsage)
                  20019af0    00000050     wlan_cmd.o (.text.printAntSelectionDisableUsage)
                  20019b40    00000050     wlan_cmd.o (.text.printCoexDisableUsage)
                  20019b90    00000050     wlan_cmd.o (.text.printConnectedStationsUsage)
                  20019be0    00000050     wlan_cmd.o (.text.printSoftRoamingDisableUsage)
                  20019c30    00000050     wlan_cmd.o (.text.printTriggeredRoamingDisableUsage)
                  20019c80    00000050     wlan_cmd.o (.text.printWlanDisconnectUsage)
                  20019cd0    00000050     wlan_cmd.o (.text.printWlanStopApUsage)
                  20019d20    00000050     ti_sysbios_config.o (.text.ti_sysbios_knl_Swi_post)
                  20019d70    00000050     ti_sysbios_config.o (.text.ti_sysbios_knl_Swi_runLoop)
                  20019dc0    0000004e     cmd_parser.o (.text.FreeConnectCmd)
                  20019e0e    0000004e     libc.a : _printfi.c.obj (.text._ecpy)
                  20019e5c    0000004e     ti_sysbios_config.o (.text.ti_sysbios_heaps_HeapMem_freeUnprotected)
                  20019eaa    0000004e     driverlib.a : udma.obj (.text.uDMAChannelAssign)
                  20019ef8    0000004c     ti_sysbios_config.o (.text.BIOS_startFunc)
                  20019f44    0000004c     drivers_cc32xx.a : GPIOCC32XX.c.obj (.text.GPIO_setInterruptConfig)
                  20019f90    0000004c     driverlib.a : prcm.obj (.text.PRCMLPDSRestoreInfoSet)
                  20019fdc    0000004c     wlan_cmd.o (.text.printDeleteFilterUsage)
                  2001a028    0000004c     wlan_cmd.o (.text.printDisableFilterUsage)
                  2001a074    0000004c     wlan_cmd.o (.text.printEnableFilterUsage)
                  2001a0c0    0000004c     transceiver_cmd.o (.text.printTranceiverModeUsage)
                  2001a10c    0000004c     ti_sysbios_config.o (.text.ti_sysbios_knl_Swi_Instance_init)
                  2001a158    0000004a     drivers_cc32xx.a : UART2CC32XX.c.obj (.text.UART2Support_dmaStopRx)
                  2001a1a2    0000004a     simplelink.a : spawn.obj (.text._SlInternalSpawnWaitForEvent)
                  2001a1ec    0000004a                  : sl_socket.obj (.text.sl_Htonl)
                  2001a236    0000004a                  : sl_socket.obj (.text.sl_Htons)
                  2001a280    0000004a     driverlib.a : udma.obj (.text.uDMAChannelSizeGet)
                  2001a2ca    00000002     --HOLE-- [fill = 0]
                  2001a2cc    00000048     ti_sysbios_config.o (.text.BIOS_init)
                  2001a314    00000048     driverlib.a : prcm.obj (.text.PRCMIntEnable)
                  2001a35c    00000048                 : prcm.obj (.text.PRCMPeripheralStatusGet)
                  2001a3a4    00000048                 : pin.obj (.text.PinConfigGet)
                  2001a3ec    00000048     drivers_cc32xx.a : UART2.c.obj (.text.UART2_readFull)
                  2001a434    00000048     libclang_rt.builtins.a : fixdfsi.S.obj (.text.__fixdfsi)
                  2001a47c    00000048     network_terminal.o (.text.printHelpUsage)
                  2001a4c4    00000048     ti_sysbios_config.o (.text.realloc)
                  2001a50c    00000048     wlan_cmd.o (.text.sendConnectionReq)
                  2001a554    00000048     ti_sysbios_config.o (.text.ti_sysbios_family_arm_m3_Hwi_create)
                  2001a59c    00000048     sysbios.a : Hwi_asm_switch_gcc.s.obj (.text.ti_sysbios_family_arm_m3_Hwi_initStacks)
                  2001a5e4    00000048     ti_sysbios_config.o (.text.ti_sysbios_family_arm_m3_Timer_initDevice)
                  2001a62c    00000048     ti_sysbios_config.o (.text.ti_sysbios_hal_Seconds_getCount)
                  2001a674    00000048     ti_sysbios_config.o (.text.ti_sysbios_heaps_HeapMem_Instance_init)
                  2001a6bc    00000048     ti_sysbios_config.o (.text.ti_sysbios_heaps_HeapMem_alloc)
                  2001a704    00000048     ti_sysbios_config.o (.text.ti_sysbios_knl_Task_schedule)
                  2001a74c    00000048     ti_sysbios_config.o (.text.ti_sysbios_runtime_Startup_exec)
                  2001a794    00000046     driverlib.a : prcm.obj (.text.PRCMLPDSEnterKeepDebugIf)
                  2001a7da    00000046     drivers_cc32xx.a : RingBuf.c.obj (.text.RingBuf_put)
                  2001a820    00000044     ti_sysbios_config.o (.text.BIOS_atExitFunc)
                  2001a864    00000044     wlan_cmd.o (.text.CheckSubFrameType)
                  2001a8a8    00000044     driverlib.a : gpio.obj (.text.GPIODirModeSet)
                  2001a8ec    00000044     drivers_cc32xx.a : GPIOCC32XX.c.obj (.text.GPIO_disableInt)
                  2001a930    00000044                      : GPIOCC32XX.c.obj (.text.GPIO_enableInt)
                  2001a974    00000044                      : PowerCC32XX.c.obj (.text.Power_releaseConstraint)
                  2001a9b8    00000044                      : SPI.c.obj (.text.SPI_init)
                  2001a9fc    00000044     uart_term.o (.text.retCommand)
                  2001aa40    00000044     transceiver_cmd.o (.text.showRxMenu)
                  2001aa84    00000044     ti_sysbios_config.o (.text.ti_sysbios_family_arm_m3_Hwi_Instance_finalize)
                  2001aac8    00000044     ti_sysbios_config.o (.text.ti_sysbios_family_arm_m3_Hwi_construct2)
                  2001ab0c    00000044     ti_sysbios_config.o (.text.ti_sysbios_family_arm_m3_Hwi_disableInterrupt)
                  2001ab50    00000044     ti_sysbios_config.o (.text.ti_sysbios_family_arm_m3_Hwi_enableInterrupt)
                  2001ab94    00000044     ti_sysbios_config.o (.text.ti_sysbios_family_arm_m3_Timer_setPeriodMicroSecs)
                  2001abd8    00000044     ti_sysbios_config.o (.text.ti_sysbios_knl_Swi_restore)
                  2001ac1c    00000044     ti_sysbios_config.o (.text.ti_sysbios_knl_Task_create)
                  2001ac60    00000042     cmd_parser.o (.text.FreeProfileCmd)
                  2001aca2    00000042     driverlib.a : pin.obj (.text.PinModeSet)
                  2001ace4    00000042     simplelink.a : spawn.obj (.text._SlInternalSpawnTaskEntry)
                  2001ad26    00000042     ti_sysbios_config.o (.text.getCountsRTC)
                  2001ad68    00000040     drivers_cc32xx.a : SPI.c.obj (.text.SPI_open)
                  2001ada8    00000040     simplelink.a : driver.obj (.text._SlDrvSyncObjWaitForever)
                  2001ade8    00000040     libc.a : atoi.c.obj (.text.atoi)
                  2001ae28    00000040            : atol.c.obj (.text.atol)
                  2001ae68    00000040     network_terminal.o (.text.printClearUsage)
                  2001aea8    00000040     radio_tool.o (.text.radioTool_TxStop)
                  2001aee8    00000040     libc.a : strtok.c.obj (.text.strtok)
                  2001af28    00000040     ti_sysbios_config.o (.text.ti_sysbios_heaps_HeapMem_getStats)
                  2001af68    00000040     ti_sysbios_config.o (.text.ti_sysbios_knl_ClockSupport_init)
                  2001afa8    00000040     ti_sysbios_config.o (.text.ti_sysbios_knl_Task_exit)
                  2001afe8    00000040     driverlib.a : udma.obj (.text.uDMAChannelControlSet)
                  2001b028    0000003e                 : pin.obj (.text.PinDirModeSet)
                  2001b066    0000003e     ti_sysbios_config.o (.text.sem_timedwait)
                  2001b0a4    0000003c     simplelink.a : sl_socket.obj (.text.CountSetBits)
                  2001b0e0    0000003c     ti_sysbios_config.o (.text.HwiP_construct)
                  2001b11c    0000003c     drivers_cc32xx.a : UDMACC32XX.c.obj (.text.UDMACC32XX_init)
                  2001b158    0000003c     simplelink.a : driver.obj (.text._SlDrvIsApiInProgress)
                  2001b194    0000003c                  : driver.obj (.text._SlDrvProtectionObjLockWaitForever)
                  2001b1d0    0000003c                  : driver.obj (.text._SlDrvProtectionObjUnLock)
                  2001b20c    0000003c     wlan_cmd.o (.text.cmdAPTransitionDisablecallback)
                  2001b248    0000003c     wlan_cmd.o (.text.cmdAPTransitionEnablecallback)
                  2001b284    0000003c     wlan_cmd.o (.text.cmdTriggeredRoamingDisablecallback)
                  2001b2c0    0000003c     wlan_cmd.o (.text.cmdWlanDisconnectCallback)
                  2001b2fc    0000003c     ti_sysbios_config.o (.text.ti_sysbios_heaps_HeapMem_construct)
                  2001b338    0000003c     ti_sysbios_config.o (.text.ti_sysbios_knl_Task_blockI)
                  2001b374    0000003c     ti_sysbios_config.o (.text.ti_sysbios_knl_Task_restore)
                  2001b3b0    0000003c     ti_sysbios_config.o (.text.ti_sysbios_runtime_Memory_alloc)
                  2001b3ec    0000003c     libc.a : vsnprintf.c.obj (.text.vsnprintf)
                  2001b428    0000003a     simplelink.a : cc_pal.obj (.text.Mutex_create_handle)
                  2001b462    0000003a                  : netapp.obj (.text._SlNetAppCopyPingResultsToReport)
                  2001b49c    00000038     uart_term.o (.text.InitTerm)
                  2001b4d4    00000038     ti_sysbios_config.o (.text.MemAlloc_alloc)
                  2001b50c    00000038     drivers_cc32xx.a : PowerCC32XX.c.obj (.text.Power_setConstraint)
                  2001b544    00000038                      : RingBuf.c.obj (.text.RingBuf_putAdvance)
                  2001b57c    00000038                      : UART2.c.obj (.text.UART2_rxEnable)
                  2001b5b4    00000038                      : UDMACC32XX.c.obj (.text.UDMACC32XX_close)
                  2001b5ec    00000038     libclang_rt.builtins.a : fixsfsi.S.obj (.text.__fixsfsi)
                  2001b624    00000038     ti_sysbios_config.o (.text.pthread_mutex_init)
                  2001b65c    00000038     simplelink.a : wlan.obj (.text.sl_WlanDisconnect)
                  2001b694    00000038     ti_sysbios_config.o (.text.ti_sysbios_family_arm_m3_Timer_Instance_finalize)
                  2001b6cc    00000038     ti_sysbios_config.o (.text.ti_sysbios_knl_TaskSupport_buildTaskStack)
                  2001b704    00000038     ti_sysbios_config.o (.text.ti_sysbios_knl_Task_processVitalTaskFlag)
                  2001b73c    00000038     libc.a : autoinit.c.obj (.text:__TI_auto_init_nobinit_nopinit)
                  2001b774    00000036     driverlib.a : pin.obj (.text.PinLock)
                  2001b7aa    00000036                 : spi.obj (.text.SPIFIFOLevelSet)
                  2001b7e0    00000036                 : uart.obj (.text.UARTCharPutNonBlocking)
                  2001b816    00000034                 : pin.obj (.text.PinDirModeGet)
                  2001b84a    00000034                 : pin.obj (.text.PinModeGet)
                  2001b87e    00000034     drivers_cc32xx.a : PowerCC32XX.c.obj (.text.PowerCC32XX_parkPin)
                  2001b8b2    00000034                      : UART2.c.obj (.text.UART2_rxDisable)
                  2001b8e6    00000034     libc.a : _printfi.c.obj (.text._fcpy)
                  2001b91a    00000002     --HOLE-- [fill = 0]
                  2001b91c    00000034     ti_sysbios_config.o (.text._pthread_cleanupFxn)
                  2001b950    00000034     wlan_cmd.o (.text.cmdSoftRoamingDisablecallback)
                  2001b984    00000034     ti_sysbios_config.o (.text.pthread_mutex_unlock)
                  2001b9b8    00000034     ti_sysbios_config.o (.text.ti_sysbios_family_arm_m3_Hwi_getStackInfo)
                  2001b9ec    00000034     ti_sysbios_config.o (.text.ti_sysbios_family_arm_m3_Hwi_init)
                  2001ba20    00000034     ti_sysbios_config.o (.text.ti_sysbios_family_arm_m3_Timer_periodicStub)
                  2001ba54    00000034     ti_sysbios_config.o (.text.ti_sysbios_knl_Task_unblockI)
                  2001ba88    00000034     ti_sysbios_config.o (.text.ti_sysbios_runtime_Error_raiseX)
                  2001babc    00000032     drivers_cc32xx.a : UART2CC32XX.c.obj (.text.UART2Support_enableInts)
                  2001baee    00000032     simplelink.a : driver.obj (.text._SlDrvObjLockWaitForever)
                  2001bb20    00000032                  : driver.obj (.text._SlDrvObjUnLock)
                  2001bb52    00000032                  : driver.obj (.text._SlDrvSyncObjSignal)
                  2001bb84    00000032     ti_sysbios_config.o (.text.ti_sysbios_knl_Semaphore_pendTimeout)
                  2001bbb6    00000030     driverlib.a : prcm.obj (.text.PRCMLPDSIntervalSet)
                  2001bbe6    00000030                 : prcm.obj (.text.PRCMSlowClkCtrFastGet)
                  2001bc16    00000030     simplelink.a : driver.obj (.text._SlDrvStartMeasureTimeout)
                  2001bc46    00000030     libc.a : vsnprintf.c.obj (.text._outs)
                  2001bc76    00000002     --HOLE-- [fill = 0]
                  2001bc78    00000030     ti_sysbios_config.o (.text.clock_settime)
                  2001bca8    00000030     ti_sysbios_config.o (.text.getTime)
                  2001bcd8    00000030     drivers_cc32xx.a : PowerCC32XX.c.obj (.text.notify)
                  2001bd08    00000030     ti_sysbios_config.o (.text.ti_sysbios_family_arm_m3_Hwi_excHandlerMin)
                  2001bd38    00000030     ti_sysbios_config.o (.text.ti_sysbios_heaps_HeapMem_free)
                  2001bd68    00000030     ti_sysbios_config.o (.text.ti_sysbios_knl_Clock_walkQueuePeriodic)
                  2001bd98    00000030     ti_sysbios_config.o (.text.ti_sysbios_knl_TaskSupport_start)
                  2001bdc8    00000030     ti_sysbios_config.o (.text.ti_sysbios_runtime_System_atexit)
                  2001bdf8    00000030     ti_sysbios_config.o (.text.ti_sysbios_runtime_System_processAtExit)
                  2001be28    00000030     ti_sysbios_config.o (.text.usleep)
                  2001be58    0000002e     driverlib.a : gpio.obj (.text.GPIOIntStatus)
                  2001be86    0000002e     simplelink.a : cc_pal.obj (.text.NwpPowerOn)
                  2001beb4    0000002e     drivers_cc32xx.a : RingBuf.c.obj (.text.RingBuf_getConsume)
                  2001bee2    0000002e                      : RingBuf.c.obj (.text.RingBuf_putPointer)
                  2001bf10    0000002e     driverlib.a : uart.obj (.text.UARTDisable)
                  2001bf3e    00000002     --HOLE-- [fill = 0]
                  2001bf40    0000002e     libclang_rt.builtins.a : floatsidf.S.obj (.text.__floatsidf)
                  2001bf6e    0000002c     drivers_cc32xx.a : UART2CC32XX.c.obj (.text.UART2CC32XX_getRxData)
                  2001bf9a    00000002     --HOLE-- [fill = 0]
                  2001bf9c    0000002c     ti_sysbios_config.o (.text._pthread_delete)
                  2001bfc8    0000002c     radio_tool.o (.text.radioTool_Close)
                  2001bff4    0000002c     libc.a : strstr.c.obj (.text.strstr)
                  2001c020    0000002c     ti_sysbios_config.o (.text.ti_sysbios_family_arm_m3_Timer_construct)
                  2001c04c    0000002c     ti_sysbios_config.o (.text.ti_sysbios_gates_GateMutex_enter)
                  2001c078    0000002c     ti_sysbios_config.o (.text.ti_sysbios_knl_Task_restoreHwi)
                  2001c0a4    0000002a     driverlib.a : prcm.obj (.text.PRCMLPDSWakeUpGPIOSelect)
                  2001c0ce    0000002a                 : prcm.obj (.text.PRCMPeripheralClkDisable)
                  2001c0f8    0000002a                 : uart.obj (.text.UARTIntStatus)
                  2001c122    0000002a     simplelink.a : flowcont.obj (.text._SlFlowContSet)
                  2001c14c    0000002a     ti_sysbios_config.o (.text.ti_sysbios_knl_Task_allBlockedFunction)
                  2001c176    00000002     --HOLE-- [fill = 0]
                  2001c178    00000028     ti_sysbios_config.o (.text.BIOS_registerRTSLock)
                  2001c1a0    00000028     drivers_cc32xx.a : List.c.obj (.text.List_remove)
                  2001c1c8    00000028     driverlib.a : prcm.obj (.text.PRCMSRAMRetentionEnable)
                  2001c1f0    00000028     drivers_cc32xx.a : PowerCC32XX.c.obj (.text.PowerCC32XX_getParkState)
                  2001c218    00000028     driverlib.a : spi.obj (.text.SPIReset)
                  2001c240    00000028     ti_sysbios_config.o (.text.calloc)
                  2001c268    00000028     radio_tool.o (.text.radioTool_GetStats)
                  2001c290    00000028     ti_sysbios_config.o (.text.sem_init)
                  2001c2b8    00000028     transceiver_cmd.o (.text.showPowMenu)
                  2001c2e0    00000028     ti_sysbios_config.o (.text.sleep)
                  2001c308    00000028     sysbios.a : Hwi_asm_gcc.s.obj (.text.ti_sysbios_family_arm_m3_Hwi_excHandlerAsm)
                  2001c330    00000028     ti_sysbios_config.o (.text.ti_sysbios_family_arm_m3_Timer_oneShotStub)
                  2001c358    00000028     ti_sysbios_config.o (.text.ti_sysbios_family_arm_m3_Timer_setPeriod)
                  2001c380    00000028     ti_sysbios_config.o (.text.ti_sysbios_gates_GateMutex_Instance_init)
                  2001c3a8    00000028     ti_sysbios_config.o (.text.ti_sysbios_knl_Semaphore_Instance_init)
                  2001c3d0    00000028     ti_sysbios_config.o (.text.ti_sysbios_knl_Swi_init)
                  2001c3f8    00000028     ti_sysbios_config.o (.text.ti_sysbios_knl_Task_construct)
                  2001c420    00000028     ti_sysbios_config.o (.text.ti_sysbios_knl_Task_init)
                  2001c448    00000026     driverlib.a : spi.obj (.text.SPIDataGet)
                  2001c46e    00000002     --HOLE-- [fill = 0]
                  2001c470    00000024     ti_sysbios_config.o (.text.BIOS_removeRTSLock)
                  2001c494    00000024     drivers_cc32xx.a : List.c.obj (.text.List_put)
                  2001c4b8    00000024     uart_term.o (.text.Message)
                  2001c4dc    00000024     driverlib.a : prcm.obj (.text.PRCMLPDSWakeupSourceEnable)
                  2001c500    00000024     drivers_cc32xx.a : PowerCC32XX.c.obj (.text.PowerCC32XX_restoreParkState)
                  2001c524    00000024                      : PowerCC32XX.c.obj (.text.PowerCC32XX_restoreParkedPin)
                  2001c548    00000024                      : PowerCC32XX.c.obj (.text.Power_registerNotify)
                  2001c56c    00000024     driverlib.a : spi.obj (.text.SPIDataPut)
                  2001c590    00000024     ti_sysbios_config.o (.text.SemaphoreP_createBinary)
                  2001c5b4    00000024     drivers_cc32xx.a : UART2CC32XX.c.obj (.text.UART2Support_disableRx)
                  2001c5d8    00000024     libclang_rt.builtins.a : floatunsisf.S.obj (.text.__floatunsisf)
                  2001c5fc    00000024     radio_tool.o (.text.radioTool_RxStop)
                  2001c620    00000024     cmd_parser.o (.text.strncpy)
                  2001c644    00000024     ti_sysbios_config.o (.text.ti_sysbios_family_arm_m3_Hwi_construct)
                  2001c668    00000024     ti_sysbios_config.o (.text.ti_sysbios_family_arm_m3_Timer_postInit)
                  2001c68c    00000024     ti_sysbios_config.o (.text.ti_sysbios_family_arm_m3_Timer_startup)
                  2001c6b0    00000024     ti_sysbios_config.o (.text.ti_sysbios_knl_Semaphore_destruct)
                  2001c6d4    00000024     ti_sysbios_config.o (.text.ti_sysbios_knl_Task_enter)
                  2001c6f8    00000024     sysbios.a : boot_cortex_m.c.obj (.text:_c_int00)
                  2001c71c    00000022     driverlib.a : gpio.obj (.text.GPIOPinWrite)
                  2001c73e    00000022                 : pin.obj (.text.PinUnlock)
                  2001c760    00000022     drivers_cc32xx.a : RingBuf.c.obj (.text.RingBuf_getPointer)
                  2001c782    00000022     driverlib.a : spi.obj (.text.SPIWordCountSet)
                  2001c7a4    00000022     drivers_cc32xx.a : UART2CC32XX.c.obj (.text.UART2Support_sendData)
                  2001c7c6    00000022                      : UART2.c.obj (.text.UART2_read)
                  2001c7e8    00000022     libc.a : strspn.c.obj (.text.strspn)
                  2001c80a    00000002     --HOLE-- [fill = 0]
                  2001c80c    00000020     ti_sysbios_config.o (.text.HwiP_clearInterrupt)
                  2001c82c    00000020     drivers_cc32xx.a : PowerCC32XX.c.obj (.text.PowerCC32XX_reset)
                  2001c84c    00000020                      : PowerCC32XX.c.obj (.text.Power_unregisterNotify)
                  2001c86c    00000020     ti_sysbios_config.o (.text.SemaphoreP_constructBinary)
                  2001c88c    00000020     ti_sysbios_config.o (.text.getClockTicks)
                  2001c8ac    00000020     network_terminal.o (.text.gpioButtonFxn1)
                  2001c8cc    00000020     libc.a : strcspn.c.obj (.text.strcspn)
                  2001c8ec    00000020     ti_sysbios_config.o (.text.ti_sysbios_family_arm_m3_Hwi_delete)
                  2001c90c    00000020     ti_sysbios_config.o (.text.ti_sysbios_family_arm_m3_Hwi_initStack)
                  2001c92c    00000020     ti_sysbios_config.o (.text.ti_sysbios_knl_Clock_addI)
                  2001c94c    00000020     ti_sysbios_config.o (.text.ti_sysbios_knl_Clock_tick)
                  2001c96c    00000020     ti_sysbios_config.o (.text.ti_sysbios_knl_Semaphore_delete)
                  2001c98c    00000020     sysbios.a : TaskSupport_asm_gcc.s.obj (.text.ti_sysbios_knl_TaskSupport_swap)
                  2001c9ac    00000020     ti_sysbios_config.o (.text.ti_sysbios_knl_Task_delete)
                  2001c9cc    00000020     ti_sysbios_config.o (.text.ti_sysbios_knl_Task_destruct)
                  2001c9ec    0000001e     cmd_parser.o (.text.FreeStartApCmd)
                  2001ca0a    0000001e     cmd_parser.o (.text.FreemDNSAdvertiseCmd)
                  2001ca28    0000001e     driverlib.a : pin.obj (.text.PinTypeSPI)
                  2001ca46    0000001e                 : pin.obj (.text.PinTypeUART)
                  2001ca64    0000001e     drivers_cc32xx.a : UART2.c.obj (.text.UART2_writeTimeout)
                  2001ca82    0000001e     driverlib.a : uart.obj (.text.UARTEnable)
                  2001caa0    0000001e     libc.a : memccpy.c.obj (.text.memccpy)
                  2001cabe    0000001e     sysbios.a : Hwi_asm_switch_gcc.s.obj (.text.ti_sysbios_family_arm_m3_Hwi_switchAndRunFunc)
                  2001cadc    0000001e     ti_sysbios_config.o (.text.ti_sysbios_knl_Semaphore_create)
                  2001cafa    0000001e     driverlib.a : udma.obj (.text.uDMAChannelDisable)
                  2001cb18    0000001e                 : udma.obj (.text.uDMAChannelEnable)
                  2001cb36    0000001e                 : udma.obj (.text.uDMAChannelIsEnabled)
                  2001cb54    0000001c     ti_sysbios_config.o (.text.BIOS_rtsLock)
                  2001cb70    0000001c     drivers_cc32xx.a : GPIOCC32XX.c.obj (.text.GPIO_clearInt)
                  2001cb8c    0000001c                      : GPIO.c.obj (.text.GPIO_setCallback)
                  2001cba8    0000001c     socket_cmd.o (.text.OUTLINED_FUNCTION_1)
                  2001cbc4    0000001c     simplelink.a : spawn.obj (.text._SlInternalIsItSpawnThread)
                  2001cbe0    0000001c     ti_sysbios_config.o (.text.free)
                  2001cbfc    0000001c     uart_term.o (.text.getch)
                  2001cc18    0000001c     uart_term.o (.text.putch)
                  2001cc34    0000001c     ti_sysbios_config.o (.text.ti_sysbios_knl_Idle_run)
                  2001cc50    0000001c     ti_sysbios_config.o (.text.ti_sysbios_knl_Queue_put)
                  2001cc6c    0000001c     ti_sysbios_config.o (.text.ti_sysbios_knl_Semaphore_construct)
                  2001cc88    0000001a     driverlib.a : gpio.obj (.text.GPIOIntDisable)
                  2001cca2    0000001a     socket_cmd.o (.text.OUTLINED_FUNCTION_2)
                  2001ccbc    0000001a     cmd_parser.o (.text.OUTLINED_FUNCTION_8)
                  2001ccd6    0000001a     driverlib.a : prcm.obj (.text.PRCMHIBRegRead)
                  2001ccf0    0000001a                 : prcm.obj (.text.PRCMHIBRegWrite)
                  2001cd0a    0000001a                 : prcm.obj (.text.PRCMLPDSWakeupSourceDisable)
                  2001cd24    0000001a                 : pin.obj (.text.PinToPadGet)
                  2001cd3e    0000001a                 : spi.obj (.text.SPIDmaDisable)
                  2001cd58    0000001a                 : spi.obj (.text.SPIFIFODisable)
                  2001cd72    0000001a                 : uart.obj (.text.UARTFlowControlSet)
                  2001cd8c    0000001a     simplelink.a : device.obj (.text._SlDeviceGetStartResponseConvert)
                  2001cda6    0000001a     ti_sysbios_config.o (.text.ti_sysbios_knl_Task_sleepTimeout)
                  2001cdc0    00000018     ti_sysbios_config.o (.text.BIOS_exitFunc)
                  2001cdd8    00000018     ti_sysbios_config.o (.text.BIOS_rtsUnlock)
                  2001cdf0    00000018     driverlib.a : gpio.obj (.text.GPIOIntEnable)
                  2001ce08    00000018                 : spi.obj (.text.SPIDmaEnable)
                  2001ce20    00000018                 : spi.obj (.text.SPIFIFOEnable)
                  2001ce38    00000018     simplelink.a : driver.obj (.text._SlDrvMemZero)
                  2001ce50    00000018     libc.a : vsnprintf.c.obj (.text._outc)
                  2001ce68    00000018     str.o (.text.printBorder)
                  2001ce80    00000018     ti_sysbios_config.o (.text.pthread_attr_init)
                  2001ce98    00000018     cmd_parser.o (.text.strcat)
                  2001ceb0    00000018     ti_sysbios_config.o (.text.ti_sysbios_family_arm_m3_Timer_stop)
                  2001cec8    00000018     sysbios.a : TaskSupport_asm_gcc.s.obj (.text.ti_sysbios_knl_TaskSupport_glue)
                  2001cee0    00000018     ti_sysbios_config.o (.text.ti_sysbios_knl_Task_unblock)
                  2001cef8    00000016     ti_drivers_config.o (.text.Board_init)
                  2001cf0e    00000016     ti_sysbios_config.o (.text.HwiP_interruptsEnabled)
                  2001cf24    00000016     driverlib.a : spi.obj (.text.SPICSDisable)
                  2001cf3a    00000016                 : spi.obj (.text.SPICSEnable)
                  2001cf50    00000016                 : spi.obj (.text.SPIDisable)
                  2001cf66    00000016                 : spi.obj (.text.SPIEnable)
                  2001cf7c    00000016                 : uart.obj (.text.UARTCharsAvail)
                  2001cf92    00000016                 : uart.obj (.text.UARTDMADisable)
                  2001cfa8    00000016                 : uart.obj (.text.UARTFIFOLevelSet)
                  2001cfbe    00000016                 : uart.obj (.text.UARTIntDisable)
                  2001cfd4    00000016     ti_sysbios_config.o (.text.clockFxn)
                  2001cfea    00000016     cmd_parser.o (.text.isChannelAt)
                  2001d000    00000014     driverlib.a : cpu.obj (.text.CPUcpsid)
                  2001d014    00000014                 : cpu.obj (.text.CPUcpsie)
                  2001d028    00000014     socket_cmd.o (.text.OUTLINED_FUNCTION_3)
                  2001d03c    00000014     socket_cmd.o (.text.OUTLINED_FUNCTION_4)
                  2001d050    00000014     drivers_cc32xx.a : PowerCC32XX.c.obj (.text.Power_disablePolicy)
                  2001d064    00000014                      : PowerCC32XX.c.obj (.text.Power_getTransitionLatency)
                  2001d078    00000014                      : PowerCC32XX.c.obj (.text.Power_idleFunc)
                  2001d08c    00000014     network_terminal.o (.text.SimpleLinkGeneralEventHandler)
                  2001d0a0    00000014     driverlib.a : uart.obj (.text.UARTDMAEnable)
                  2001d0b4    00000014                 : uart.obj (.text.UARTIntEnable)
                  2001d0c8    00000014     simplelink.a : driver.obj (.text._SlDrvDispatchHttpServerEvents)
                  2001d0dc    00000014                  : driver.obj (.text._SlDrvDispatchNetAppRequestEvents)
                  2001d0f0    00000014                  : driver.obj (.text._SlDrvIsSpawnOwnGlobalLock)
                  2001d104    00000014     libclang_rt.builtins.a : aeabi_uldivmod.S.obj (.text.__aeabi_uldivmod)
                  2001d118    00000014     libc.a : args_main.c.obj (.text._args_main)
                  2001d12c    00000014     ti_sysbios_config.o (.text.pthread_attr_setschedparam)
                  2001d140    00000014     ti_sysbios_config.o (.text.pthread_mutex_destroy)
                  2001d154    00000014     ti_sysbios_config.o (.text.pthread_mutexattr_init)
                  2001d168    00000014     ti_sysbios_config.o (.text.ti_sysbios_family_arm_m3_Hwi_switchFromBootStack)
                  2001d17c    00000014     ti_sysbios_config.o (.text.ti_sysbios_knl_ClockSupport_setPeriodMicroSecs)
                  2001d190    00000014     driverlib.a : udma.obj (.text.uDMAControlBaseSet)
                  2001d1a4    00000014                 : udma.obj (.text.uDMAIntClear)
                  2001d1b8    00000012     cmd_parser.o (.text.FreePingCmd)
                  2001d1ca    00000012     cmd_parser.o (.text.FreeRecvCmd)
                  2001d1dc    00000012     cmd_parser.o (.text.FreeSendCmd)
                  2001d1ee    00000012     driverlib.a : gpio.obj (.text.GPIOIntClear)
                  2001d200    00000012     simplelink.a : driver.obj (.text._SlDrvResetCmdExt)
                  2001d212    00000012     ti_sysbios_config.o (.text._pthread_runStub)
                  2001d224    00000012     drivers_cc32xx.a : UDMACC32XX.c.obj (.text.postNotifyFxn)
                  2001d236    00000012     simplelink.a : cc_pal.obj (.text.spi_Close)
                  2001d248    00000012     libc.a : _printfi.c.obj (.text.strchr)
                  2001d25a    00000012     ti_sysbios_config.o (.text.ti_sysbios_hal_Seconds_set)
                  2001d26c    00000012     libc.a : memcpy_t2.S.obj (.text:TI_memcpy_small)
                  2001d27e    00000002     --HOLE-- [fill = 0]
                  2001d280    00000010     ti_sysbios_config.o (.text.ClockP_getCpuFreq)
                  2001d290    00000010     ti_sysbios_config.o (.text.HwiP_Params_init)
                  2001d2a0    00000010     wlan_cmd.o (.text.OUTLINED_FUNCTION_0)
                  2001d2b0    00000010     cmd_parser.o (.text.OUTLINED_FUNCTION_16)
                  2001d2c0    00000010     cmd_parser.o (.text.OUTLINED_FUNCTION_7)
                  2001d2d0    00000010     drivers_cc32xx.a : PowerCC32XX.c.obj (.text.PowerCC32XX_getWakeup)
                  2001d2e0    00000010                      : PowerCC32XX.c.obj (.text.Power_enablePolicy)
                  2001d2f0    00000010                      : RingBuf.c.obj (.text.RingBuf_construct)
                  2001d300    00000010                      : UART2CC32XX.c.obj (.text.UART2Support_txDone)
                  2001d310    00000010     driverlib.a : uart.obj (.text.UARTBusy)
                  2001d320    00000010                 : uart.obj (.text.UARTIntClear)
                  2001d330    00000010                 : uart.obj (.text.UARTRxErrorGet)
                  2001d340    00000010     cmd_parser.o (.text.strchr)
                  2001d350    00000010     ti_sysbios_config.o (.text.ti_sysbios_family_arm_m3_Hwi_excHandler)
                  2001d360    00000010     libc.a : wcslen.c.obj (.text.wcslen)
                  2001d370    00000010            : copy_zero_init.c.obj (.text:decompress:ZI)
                  2001d380    0000000e     simplelink.a : cc_pal.obj (.text.NwpMaskInterrupt)
                  2001d38e    0000000e                  : cc_pal.obj (.text.NwpUnMaskInterrupt)
                  2001d39c    0000000e     uart_term.o (.text.OUTLINED_FUNCTION_0)
                  2001d3aa    0000000e     drivers_cc32xx.a : UART2.c.obj (.text.UART2_write)
                  2001d3b8    0000000e                      : SPICC32XXDMA.c.obj (.text.postNotifyFxn)
                  2001d3c6    0000000e     ti_sysbios_config.o (.text.sem_wait)
                  2001d3d4    0000000e     simplelink.a : device.obj (.text.sl_Task)
                  2001d3e2    0000000e     cmd_parser.o (.text.strcpy)
                  2001d3f0    0000000e     cmd_parser.o (.text.strlen)
                  2001d3fe    0000000e     libc.a : _printfi.c.obj (.text.strlen)
                  2001d40c    0000000e     netapp_cmd.o (.text.strlen)
                  2001d41a    0000000e     network_terminal.o (.text.strlen)
                  2001d428    0000000e     uart_term.o (.text.strlen)
                  2001d436    0000000e     wlan_cmd.o (.text.strlen)
                  2001d444    0000000e     ti_sysbios_config.o (.text.ti_sysbios_gates_GateMutex_leave)
                  2001d452    0000000e     ti_sysbios_config.o (.text.ti_sysbios_knl_Clock_tickReconfig)
                  2001d460    0000000e     driverlib.a : udma.obj (.text.uDMAEnable)
                  2001d46e    0000000e                 : udma.obj (.text.uDMAErrorStatusClear)
                  2001d47c    0000000e     libc.a : memset_t2.S.obj (.text:TI_memset_small)
                  2001d48a    0000000e            : copy_decompress_none.c.obj (.text:decompress:none)
                  2001d498    0000000c     ti_sysbios_config.o (.text.BIOS_linkedWithIncorrectBootLibrary)
                  2001d4a4    0000000c     ti_sysbios_config.o (.text.BIOS_start)
                  2001d4b0    0000000c     driverlib.a : cpu.obj (.text.CPUwfi)
                  2001d4bc    0000000c     uart_term.o (.text.ClearTerm)
                  2001d4c8    0000000c     ti_sysbios_config.o (.text.ClockP_getSystemTicks)
                  2001d4d4    0000000c     ti_sysbios_config.o (.text.HwiP_delete)
                  2001d4e0    0000000c     ti_sysbios_config.o (.text.HwiP_disable)
                  2001d4ec    0000000c     drivers_cc32xx.a : UART2CC32XX.c.obj (.text.OUTLINED_FUNCTION_0)
                  2001d4f8    0000000c     libc.a : _printfi.c.obj (.text.OUTLINED_FUNCTION_0)
                  2001d504    0000000c     cmd_parser.o (.text.OUTLINED_FUNCTION_18)
                  2001d510    0000000c     uart_term.o (.text.OUTLINED_FUNCTION_1)
                  2001d51c    0000000c     driverlib.a : prcm.obj (.text.PRCMLPDSWakeupCauseGet)
                  2001d528    0000000c     ti_sysbios_config.o (.text.PowerCC32XX_initPolicy)
                  2001d534    0000000c     drivers_cc32xx.a : PowerCC32XX.c.obj (.text.Power_getConstraintMask)
                  2001d540    0000000c                      : SPI.c.obj (.text.SPI_Params_init)
                  2001d54c    0000000c     ti_sysbios_config.o (.text.SemaphoreP_delete)
                  2001d558    0000000c     drivers_cc32xx.a : UART2CC32XX.c.obj (.text.UART2CC32XX_postNotifyFxn)
                  2001d564    0000000c                      : UART2CC32XX.c.obj (.text.UART2Support_disableTx)
                  2001d570    0000000c                      : UART2CC32XX.c.obj (.text.UART2Support_enableRx)
                  2001d57c    0000000c                      : UART2CC32XX.c.obj (.text.UART2Support_enableTx)
                  2001d588    0000000c                      : UART2.c.obj (.text.UART2_Params_init)
                  2001d594    0000000c     libc.a : _lock.c.obj (.text._register_lock)
                  2001d5a0    0000000c            : _lock.c.obj (.text._register_unlock)
                  2001d5ac    0000000c     ti_sysbios_config.o (.text.pthread_attr_setdetachstate)
                  2001d5b8    0000000c     ti_sysbios_config.o (.text.pthread_mutexattr_settype)
                  2001d5c4    0000000c     ti_sysbios_config.o (.text.pthread_self)
                  2001d5d0    0000000c     ti_sysbios_config.o (.text.ti_sysbios_heaps_HeapMem_init)
                  2001d5dc    0000000c     ti_sysbios_config.o (.text.ti_sysbios_knl_ClockSupport_start)
                  2001d5e8    0000000c     ti_sysbios_config.o (.text.ti_sysbios_knl_ClockSupport_stop)
                  2001d5f4    0000000c     driverlib.a : udma.obj (.text.uDMAControlBaseGet)
                  2001d600    0000000c                 : udma.obj (.text.uDMAErrorStatusGet)
                  2001d60c    0000000a     transceiver_cmd.o (.text.OUTLINED_FUNCTION_0)
                  2001d616    0000000a     drivers_cc32xx.a : SPICC32XXDMA.c.obj (.text.OUTLINED_FUNCTION_1)
                  2001d620    0000000a                      : UART2CC32XX.c.obj (.text.OUTLINED_FUNCTION_1)
                  2001d62a    0000000a     libc.a : _printfi.c.obj (.text.OUTLINED_FUNCTION_1)
                  2001d634    0000000a     transceiver_cmd.o (.text.OUTLINED_FUNCTION_1)
                  2001d63e    0000000a     drivers_cc32xx.a : SPICC32XXDMA.c.obj (.text.OUTLINED_FUNCTION_2)
                  2001d648    0000000a                      : UART2CC32XX.c.obj (.text.OUTLINED_FUNCTION_2)
                  2001d652    0000000a     transceiver_cmd.o (.text.OUTLINED_FUNCTION_4)
                  2001d65c    0000000a     socket_cmd.o (.text.OUTLINED_FUNCTION_5)
                  2001d666    0000000a     socket_cmd.o (.text.OUTLINED_FUNCTION_6)
                  2001d670    0000000a     socket_cmd.o (.text.OUTLINED_FUNCTION_7)
                  2001d67a    0000000a     socket_cmd.o (.text.OUTLINED_FUNCTION_8)
                  2001d684    0000000a     socket_cmd.o (.text.OUTLINED_FUNCTION_9)
                  2001d68e    0000000a     ti_sysbios_config.o (.text.SemaphoreP_pend)
                  2001d698    0000000a     simplelink.a : device.obj (.text._SlDeviceResetRequestInitCompletedCB)
                  2001d6a2    00000002     --HOLE-- [fill = 0]
                  2001d6a4    0000000a     libclang_rt.builtins.a : aeabi_memset.S.obj (.text.__aeabi_memset)
                  2001d6ae    0000000a     network_terminal.o (.text.cmdClearcallback)
                  2001d6b8    0000000a     ti_drivers_config.o (.text.dmaErrorFxn)
                  2001d6c2    0000000a     ti_sysbios_config.o (.text.sem_destroy)
                  2001d6cc    0000000a     ti_sysbios_config.o (.text.sem_post)
                  2001d6d6    00000008     network_terminal.o (.text.OUTLINED_FUNCTION_0)
                  2001d6de    00000008     cmd_parser.o (.text.OUTLINED_FUNCTION_11)
                  2001d6e6    00000008     cmd_parser.o (.text.OUTLINED_FUNCTION_12)
                  2001d6ee    00000008     cmd_parser.o (.text.OUTLINED_FUNCTION_13)
                  2001d6f6    00000008     cmd_parser.o (.text.OUTLINED_FUNCTION_14)
                  2001d6fe    00000008     cmd_parser.o (.text.OUTLINED_FUNCTION_15)
                  2001d706    00000008     cmd_parser.o (.text.OUTLINED_FUNCTION_1)
                  2001d70e    00000008     wlan_cmd.o (.text.OUTLINED_FUNCTION_1)
                  2001d716    00000008     cmd_parser.o (.text.OUTLINED_FUNCTION_2)
                  2001d71e    00000008     cmd_parser.o (.text.OUTLINED_FUNCTION_3)
                  2001d726    00000008     transceiver_cmd.o (.text.OUTLINED_FUNCTION_3)
                  2001d72e    00000008     wlan_cmd.o (.text.OUTLINED_FUNCTION_3)
                  2001d736    00000008     wlan_cmd.o (.text.OUTLINED_FUNCTION_4)
                  2001d73e    00000008     driverlib.a : prcm.obj (.text.PRCMSleepEnter)
                  2001d746    00000008     simplelink.a : cc_pal.obj (.text.TimerGetCurrentTimestamp)
                  2001d74e    00000008     driverlib.a : utils.obj (.text.UtilsDelay)
                  2001d756    00000002     --HOLE-- [fill = 0]
                  2001d758    00000008     libc.a : aeabi_portable.c.obj (.text.__aeabi_errno_addr)
                  2001d760    00000008     libclang_rt.builtins.a : aeabi_memset.S.obj (.text.__aeabi_memclr)
                  2001d768    00000008     drivers_cc32xx.a : SPICC32XXDMA.c.obj (.text.blockingTransferCallback)
                  2001d770    00000008     ti_sysbios_config.o (.text.pthread_mutex_lock)
                  2001d778    00000008     ti_sysbios_config.o (.text.sem_getvalue)
                  2001d780    00000008     ti_sysbios_config.o (.text.ti_sysbios_runtime_System_exit)
                  2001d788    00000006     ti_sysbios_config.o (.text.ClockP_getSystemTickPeriod)
                  2001d78e    00000006     ti_sysbios_config.o (.text.HwiP_restore)
                  2001d794    00000006     cmd_parser.o (.text.OUTLINED_FUNCTION_0)
                  2001d79a    00000006     drivers_cc32xx.a : UART2.c.obj (.text.OUTLINED_FUNCTION_0)
                  2001d7a0    00000006     socket_cmd.o (.text.OUTLINED_FUNCTION_0)
                  2001d7a6    00000006     cmd_parser.o (.text.OUTLINED_FUNCTION_10)
                  2001d7ac    00000006     cmd_parser.o (.text.OUTLINED_FUNCTION_17)
                  2001d7b2    00000006     transceiver_cmd.o (.text.OUTLINED_FUNCTION_2)
                  2001d7b8    00000006     wlan_cmd.o (.text.OUTLINED_FUNCTION_2)
                  2001d7be    00000006     drivers_cc32xx.a : SPICC32XXDMA.c.obj (.text.OUTLINED_FUNCTION_3)
                  2001d7c4    00000006     cmd_parser.o (.text.OUTLINED_FUNCTION_4)
                  2001d7ca    00000006     cmd_parser.o (.text.OUTLINED_FUNCTION_5)
                  2001d7d0    00000006     transceiver_cmd.o (.text.OUTLINED_FUNCTION_5)
                  2001d7d6    00000006     cmd_parser.o (.text.OUTLINED_FUNCTION_6)
                  2001d7dc    00000006     transceiver_cmd.o (.text.OUTLINED_FUNCTION_6)
                  2001d7e2    00000006     cmd_parser.o (.text.OUTLINED_FUNCTION_9)
                  2001d7e8    00000006     drivers_cc32xx.a : SPICC32XXDMA.c.obj (.text.SPICC32XXDMA_control)
                  2001d7ee    00000006                      : SPI.c.obj (.text.SPI_close)
                  2001d7f4    00000006                      : SPI.c.obj (.text.SPI_transfer)
                  2001d7fa    00000006                      : UART2CC32XX.c.obj (.text.UART2Support_powerRelConstraint)
                  2001d800    00000006                      : UART2CC32XX.c.obj (.text.UART2Support_powerSetConstraint)
                  2001d806    00000006     ti_sysbios_config.o (.text.pthread_attr_setstacksize)
                  2001d80c    00000006     ti_sysbios_config.o (.text.ti_sysbios_family_arm_m3_Hwi_destruct)
                  2001d812    00000006     ti_sysbios_config.o (.text.ti_sysbios_family_arm_m3_Hwi_doSwiRestore)
                  2001d818    00000006     ti_sysbios_config.o (.text.ti_sysbios_family_arm_m3_Hwi_doTaskRestore)
                  2001d81e    00000006     ti_sysbios_config.o (.text.ti_sysbios_knl_Idle_loop)
                  2001d824    00000006     ti_sysbios_config.o (.text.ti_sysbios_knl_Swi_startup)
                  2001d82a    00000004     ti_sysbios_config.o (.text.HwiP_disableInterrupt)
                  2001d82e    00000004     ti_sysbios_config.o (.text.HwiP_enableInterrupt)
                  2001d832    00000004     drivers_cc32xx.a : RingBuf.c.obj (.text.RingBuf_getCount)
                  2001d836    00000004                      : SPICC32XXDMA.c.obj (.text.SPICC32XXDMA_init)
                  2001d83a    00000004     ti_sysbios_config.o (.text.SemaphoreP_destruct)
                  2001d83e    00000004     ti_sysbios_config.o (.text.SemaphoreP_post)
                  2001d842    00000002     --HOLE-- [fill = 0]
                  2001d844    00000004     libclang_rt.builtins.a : aeabi_memcpy.S.obj (.text.__aeabi_memcpy)
                  2001d848    00000004     ti_sysbios_config.o (.text._system_post_cinit)
                  2001d84c    00000004     ti_sysbios_config.o (.text.malloc)
                  2001d850    00000004     ti_sysbios_config.o (.text.ti_sysbios_heaps_HeapMem_isBlocking)

.bss       0    2002c800    0000292f     UNINITIALIZED
                  2002c800    0000089c     (.common:app_CB)
                  2002d09c    000005dc     (.common:Rx_frame)
                  2002d678    000005dc     (.common:Tx_frame)
                  2002dc54    0000030c     (.common:ti_sysbios_family_arm_m3_Hwi_dispatchTable)
                  2002df60    00000088     (.common:spiCC32XXDMAObjects)
                  2002dfe8    00000014     drivers_cc32xx.a : UDMACC32XX.c.obj (.bss.postNotifyObj)
                  2002dffc    00000004     uart_term.o (.bss.uartHandle)
                  2002e000    00000400     ti_drivers_config.o (.bss.dmaControlTable)
                  2002e400    000003fc     (.common:g_CB)
                  2002e7fc    00000004     (.common:ti_sysbios_family_arm_m3_Timer_startupNeeded)
                  2002e800    00000200     (.common:ti_sysbios_knl_Idle_taskStack)
                  2002ea00    00000178     (.common:uart2CC32XXObjects0)
                  2002eb78    0000012c     (.common:PowerCC32XX_contextSave)
                  2002eca4    00000084     (.common:gpioCallbackFunctions)
                  2002ed28    00000084     (.common:gpioUserArgs)
                  2002edac    00000080     (.common:ti_sysbios_knl_Swi_readyQs)
                  2002ee2c    00000080     (.common:ti_sysbios_knl_Task_readyQs)
                  2002eeac    00000058     (.common:ti_sysbios_knl_Idle_taskStruct)
                  2002ef04    00000040     (.common:app_CH)
                  2002ef44    00000034     (.common:ti_sysbios_knl_ClockSupport_timerStruct)
                  2002ef78    0000002c     (.common:BIOS_heapMemObject)
                  2002efa4    0000002c     (.common:GlobalLockObj)
                  2002efd0    00000028     (.common:BIOS_rtsGate)
                  2002eff8    00000028     (.common:g_SlInternalSpawnCB)
                  2002f020    00000028     (.common:ti_sysbios_heaps_HeapMem_gate)
                  2002f048    00000024     ti_sysbios_config.o (.bss.clockStruct)
                  2002f06c    00000020     ti_drivers_config.o (.bss.uart2RxRingBuffer0)
                  2002f08c    00000020     ti_drivers_config.o (.bss.uart2TxRingBuffer0)
                  2002f0ac    00000020     (.common:ti_sysbios_runtime_System_atexitHandlers)
                  2002f0cc    0000001c     ti_sysbios_config.o (.bss.sem)
                  2002f0e8    00000014     (.common:ti_sysbios_hal_Seconds_Module_state)
                  2002f0fc    0000000c     (.common:DeviceCB)
                  2002f108    0000000c     (.common:Msg)
                  2002f114    00000008     (.common:spiCC32XXSDMAscratchBuf)
                  2002f11c    00000008     (.common:udmaCC3220SObject)
                  2002f124    00000004     (.common:ti_sysbios_family_arm_m3_TimestampProvider_Module_state)
                  2002f128    00000004     (.common:ti_sysbios_knl_Task_defaultStackHeap)
                  2002f12c    00000002     (.common:radioTool_rawSocketdesc)
                  2002f12e    00000001     (.common:RxIrqCnt)

.data      0    2002f130    00001565     UNINITIALIZED
                  2002f130    000001a4     network_terminal.o (.data.gCmdList)
                  2002f2d4    0000016c     drivers_cc32xx.a : PowerCC32XX.c.obj (.data.PowerCC32XX_module)
                  2002f440    000000f8     ti_drivers_config.o (.data.parkInfo)
                  2002f538    000000e0     str.o (.data.ap_start_UsageStr)
                  2002f618    00000097     str.o (.data.wlanConnectUsageStr)
                  2002f6af    0000008d     str.o (.data.createFilterUsageStr)
                  2002f73c    00000089     str.o (.data.addProfileUsageStr)
                  2002f7c5    00000087     str.o (.data.mDNSAdvertiseUsageStr)
                  2002f84c    00000084     ti_drivers_config.o (.data.gpioPinConfigs)
                  2002f8d0    00000083     str.o (.data.setPolicyUsageStr)
                  2002f953    0000007a     str.o (.data.send_c_optionDetailsStr)
                  2002f9cd    00000070     str.o (.data.pingUsageStr)
                  2002fa3d    00000003     str.o (.data.V_optionStr)
                  2002fa40    00000068     ti_sysbios_config.o (.data..L_MergedGlobals.72)
                  2002faa8    00000068     ti_sysbios_config.o (.data.ti_sysbios_knl_Clock_Module_state)
                  2002fb10    0000005e     str.o (.data.recv_Note_optionDetailsStr)
                  2002fb6e    0000005d     str.o (.data.sendUsage1Str)
                  2002fbcb    00000001     simplelink.a : driver.obj (.data.gGlobalLockCntReleased)
                  2002fbcc    0000005c     ti_sysbios_config.o (.data..L_MergedGlobals)
                  2002fc28    00000057     str.o (.data.mDNSdQueryUsageStr)
                  2002fc7f    0000004e     str.o (.data.sendUsage2Str)
                  2002fccd    00000048     str.o (.data.enableWoWLANUsageStr)
                  2002fd15    00000003     str.o (.data.a_optionStr)
                  2002fd18    00000040     str.o (.data.DataFrames_str)
                  2002fd58    0000003c     str.o (.data.radiotoolDetailsStr)
                  2002fd94    0000003c     ti_sysbios_config.o (.data.ti_sysbios_knl_Task_Module_state)
                  2002fdd0    0000003b     str.o (.data.send_p_optionDetailsStr)
                  2002fe0b    00000039     str.o (.data.send_nb_optionDetailsStr)
                  2002fe44    00000038     str.o (.data.send_n_optionDetailsStr)
                  2002fe7c    00000037     str.o (.data.send_n_r_optionDetailsStr)
                  2002feb3    00000001     simplelink.a : driver.obj (.data.gGlobalLockCntRequested)
                  2002feb4    00000030     str.o (.data.MangmentFrames_str)
                  2002fee4    0000002d     str.o (.data.scanUsageStr)
                  2002ff11    00000024     wlan_cmd.o (.data..L_MergedGlobals)
                  2002ff35    00000024     str.o (.data.SetCountryCodeUsageStr)
                  2002ff59    00000003     str.o (.data.c_optionStr)
                  2002ff5c    00000024     simplelink.a : eventreg.obj (.data.g_LibsEvents)
                  2002ff80    00000024                  : eventreg.obj (.data.g_UserEvents)
                  2002ffa4    00000022     str.o (.data.send_6_optionDetailsStr)
                  2002ffc6    00000021     str.o (.data.TriggeredRoamingEnableUsageStr)
                  2002ffe7    00000001     uart_term.o (.data.gSaveCursorPosition)
                  2002ffe8    00000020     str.o (.data.CtrlFrames_str)
                  20030008    00000020     str.o (.data.send_u_optionDetailsStr)
                  20030028    0000001e     str.o (.data.SoftRoamingEnableUsageStr)
                  20030046    0000001b     str.o (.data.getProfileUsageStr)
                  20030061    0000001b     str.o (.data.send_s_optionDetailsStr)
                  2003007c    0000001a     radio_tool.o (.data.Template_Hdr)
                  20030096    00000002     simplelink.a : driver.obj (.data.g_SlDeviceStatus)
                  20030098    00000018     drivers_cc32xx.a : GPIOCC32XX.c.obj (.data..L_MergedGlobals)
                  200300b0    00000014     str.o (.data.APTransitionDisablecmdStr)
                  200300c4    00000014     str.o (.data.AntSelectionDisablecmdStr)
                  200300d8    00000014     ti_sysbios_config.o (.data.defaultPthreadAttrs)
                  200300ec    00000014     ti_sysbios_config.o (.data.ti_sysbios_family_arm_m3_Timer_Module_state)
                  20030100    00000013     str.o (.data.APTransitionEnablecmdStr)
                  20030113    00000013     str.o (.data.AntSelectionEnablecmdStr)
                  20030126    00000013     str.o (.data.ConnectedStationsStr)
                  20030139    00000013     str.o (.data.SoftRoamingDisablecmdStr)
                  2003014c    00000013     str.o (.data.TriggeredRoamingDisablecmdStr)
                  2003015f    00000013     str.o (.data.helpUsageStr)
                  20030172    00000012     str.o (.data.SoftRoamingEnablecmdStr)
                  20030184    00000012     str.o (.data.TriggeredRoamingEnablecmdStr)
                  20030196    00000012     str.o (.data.radiotool_PromptStr)
                  200301a8    00000010     simplelink.a : netapp.obj (.data.NetAppServiceSizeLUT)
                  200301b8    0000000f     str.o (.data.wlanDisconnectStr)
                  200301c7    0000000e     str.o (.data.FRAME_SUBTYPE_str)
                  200301d5    0000000e     str.o (.data.ap_start_str)
                  200301e3    0000000e     str.o (.data.disableFilterStr)
                  200301f1    0000000e     str.o (.data.mDNSAdvertiseStr)
                  200301ff    0000000d     str.o (.data.ap_stop_str)
                  2003020c    0000000d     str.o (.data.createFilterStr)
                  20030219    0000000d     str.o (.data.deleteFilterStr)
                  20030226    0000000d     str.o (.data.enableFilterStr)
                  20030233    0000000d     str.o (.data.enableWoWLANStr)
                  20030240    0000000c     str.o (.data.AntSelectionEnableUsageStr)
                  2003024c    0000000c     str.o (.data.CoexDisablecmdStr)
                  20030258    0000000c     str.o (.data.CoexEnableUsageStr)
                  20030264    0000000c     str.o (.data.ConnectedStationsUsageStr)
                  20030270    0000000c     str.o (.data.SetCountryCodeStr)
                  2003027c    0000000c     str.o (.data.ap_stop_UsageStr)
                  20030288    0000000c     str.o (.data.wlanConnectStr)
                  20030294    0000000c     str.o (.data.wlanDisconnectUsageStr)
                  200302a0    0000000b     str.o (.data.AddProfileStr)
                  200302ab    0000000b     str.o (.data.CoexEnablecmdStr)
                  200302b6    0000000b     str.o (.data.FRAME_TYPE_str)
                  200302c1    0000000b     str.o (.data.GetProfileStr)
                  200302cc    0000000b     str.o (.data.usageStr)
                  200302d7    0000000a     str.o (.data.APTransitionDisableUsageStr)
                  200302e1    0000000a     str.o (.data.APTransitionEnableUsageStr)
                  200302eb    0000000a     str.o (.data.AntSelectionDisableUsageStr)
                  200302f5    0000000a     str.o (.data.CoexDisableUsageStr)
                  200302ff    0000000a     str.o (.data.SoftRoamingDisableUsageStr)
                  20030309    0000000a     str.o (.data.TriggeredRoamingDisableUsageStr)
                  20030313    0000000a     str.o (.data.WPA2_PLUS_str)
                  2003031d    0000000a     str.o (.data.mDNSQueryStr)
                  20030327    0000000a     str.o (.data.radiotool_Str)
                  20030331    0000000a     str.o (.data.setPolicyStr)
                  2003033b    00000009     str.o (.data.WPAWPA2_str)
                  20030344    00000009     str.o (.data.p2pStartcmdStr)
                  2003034d    00000003     str.o (.data.d_optionStr)
                  20030350    00000008     drivers_cc32xx.a : UDMACC32XX.c.obj (.data..L_MergedGlobals)
                  20030358    00000008     str.o (.data.PATTERN_str)
                  20030360    00000008     str.o (.data.p2pStopcmdStr)
                  20030368    00000008     ti_sysbios_config.o (.data.ti_sysbios_gates_GateMutex_Module_state)
                  20030370    00000008     ti_sysbios_config.o (.data.ti_sysbios_heaps_HeapMem_Module_state)
                  20030378    00000008     ti_sysbios_config.o (.data.ti_sysbios_knl_Semaphore_Module_state)
                  20030380    00000006     str.o (.data.BSSID_str)
                  20030386    00000006     str.o (.data.DESTINATION_MAC_str)
                  2003038c    00000006     str.o (.data.SOURCE_MAC_str)
                  20030392    00000006     str.o (.data.clearStr)
                  20030398    00000006     str.o (.data.cmdPromptStr)
                  2003039e    00000006     str.o (.data.help_optionStr)
                  200303a4    00000005     str.o (.data.D_IP_str)
                  200303a9    00000005     str.o (.data.OPEN_str)
                  200303ae    00000005     str.o (.data.S_IP_str)
                  200303b3    00000005     str.o (.data.WPA2_str)
                  200303b8    00000005     str.o (.data.WPA3_str)
                  200303bd    00000005     str.o (.data.dns_optionStr)
                  200303c2    00000005     str.o (.data.ent_optionStr)
                  200303c7    00000005     str.o (.data.helpStr)
                  200303cc    00000005     str.o (.data.mac_optionStr)
                  200303d1    00000005     str.o (.data.pingStr)
                  200303d6    00000005     str.o (.data.recvStr)
                  200303db    00000005     str.o (.data.scanStr)
                  200303e0    00000005     str.o (.data.sendStr)
                  200303e5    00000005     str.o (.data.ttl_optionStr)
                  200303ea    00000005     str.o (.data.txpow_optionStr)
                  200303ef    00000001     uart_term.o (.data.gStackFull)
                  200303f0    00000004     str.o (.data.APTransitionDisableDetailsStr)
                  200303f4    00000004     str.o (.data.APTransitionEnableDetailsStr)
                  200303f8    00000004     str.o (.data.AntSelectionDisableDetailsStr)
                  200303fc    00000004     str.o (.data.AntSelectionEnableDetailsStr)
                  20030400    00000004     str.o (.data.AntSelectionEnable_Note_optionDetailsStr)
                  20030404    00000004     str.o (.data.CoexDisableDetailsStr)
                  20030408    00000004     str.o (.data.CoexEnableDetailsStr)
                  2003040c    00000004     str.o (.data.CoexEnable_Note_optionDetailsStr)
                  20030410    00000004     str.o (.data.ConnectedStationsDetailsStr)
                  20030414    00000004     str.o (.data.CountryCodeDetailsStr)
                  20030418    00000004     str.o (.data.CountryCode_Note_optionDetailsStr)
                  2003041c    00000004     str.o (.data.CountryCode_g_optionDetailsStr)
                  20030420    00000004     str.o (.data.SoftRoamingDisableDetailsStr)
                  20030424    00000004     str.o (.data.SoftRoamingEnableDetailsStr)
                  20030428    00000004     str.o (.data.SoftRoamingEnable_Note_optionDetailsStr)
                  2003042c    00000004     str.o (.data.SoftRoamingEnable_r_optionDetailsStr)
                  20030430    00000004     str.o (.data.TriggeredRoamingDisableDetailsStr)
                  20030434    00000004     str.o (.data.TriggeredRoamingEnableDetailsStr)
                  20030438    00000004     str.o (.data.TriggeredRoaming_r_optionDetailsStr)
                  2003043c    00000004     str.o (.data.Txtask_m10_optionDetailsStr)
                  20030440    00000004     str.o (.data.Txtask_m11_optionDetailsStr)
                  20030444    00000004     str.o (.data.Txtask_m12_optionDetailsStr)
                  20030448    00000004     str.o (.data.Txtask_m13_optionDetailsStr)
                  2003044c    00000004     str.o (.data.Txtask_m14_optionDetailsStr)
                  20030450    00000004     str.o (.data.Txtask_m15_optionDetailsStr)
                  20030454    00000004     str.o (.data.Txtask_m16_optionDetailsStr)
                  20030458    00000004     str.o (.data.Txtask_m17_optionDetailsStr)
                  2003045c    00000004     str.o (.data.Txtask_m18_optionDetailsStr)
                  20030460    00000004     str.o (.data.Txtask_m19_optionDetailsStr)
                  20030464    00000004     str.o (.data.Txtask_m1_optionDetailsStr)
                  20030468    00000004     str.o (.data.Txtask_m20_optionDetailsStr)
                  2003046c    00000004     str.o (.data.Txtask_m21_optionDetailsStr)
                  20030470    00000004     str.o (.data.Txtask_m2_optionDetailsStr)
                  20030474    00000004     str.o (.data.Txtask_m3_optionDetailsStr)
                  20030478    00000004     str.o (.data.Txtask_m4_optionDetailsStr)
                  2003047c    00000004     str.o (.data.Txtask_m5_optionDetailsStr)
                  20030480    00000004     str.o (.data.Txtask_m6_optionDetailsStr)
                  20030484    00000004     str.o (.data.Txtask_m7_optionDetailsStr)
                  20030488    00000004     str.o (.data.Txtask_m8_optionDetailsStr)
                  2003048c    00000004     str.o (.data.Txtask_m9_optionDetailsStr)
                  20030490    00000004     str.o (.data.Txtask_m_optionDetailsStr)
                  20030494    00000004     str.o (.data.Txtask_p0_optionDetailsStr)
                  20030498    00000004     str.o (.data.Txtask_p1_optionDetailsStr)
                  2003049c    00000004     str.o (.data.Txtask_p2_optionDetailsStr)
                  200304a0    00000004     str.o (.data.Txtask_p3_optionDetailsStr)
                  200304a4    00000004     str.o (.data.Txtask_p4_optionDetailsStr)
                  200304a8    00000004     str.o (.data.Txtask_p_optionDetailsStr)
                  200304ac    00000004     str.o (.data.Txtask_tone_optionDetailsStr)
                  200304b0    00000004     str.o (.data.Txtask_txp_optionDetailsStr)
                  200304b4    00000004     str.o (.data.WEP_str)
                  200304b8    00000004     str.o (.data.WPA_str)
                  200304bc    00000004     str.o (.data.WPS_str)
                  200304c0    00000004     libc.a : aeabi_portable.c.obj (.data.__aeabi_errno)
                  200304c4    00000004            : _lock.c.obj (.data._lock)
                  200304c8    00000004            : _lock.c.obj (.data._unlock)
                  200304cc    00000004     str.o (.data.ap_start_DetailsStr)
                  200304d0    00000004     str.o (.data.ap_start_channel_optionDetailsStr)
                  200304d4    00000004     str.o (.data.ap_start_h_optionDetailsStr)
                  200304d8    00000004     str.o (.data.ap_start_l_optionDetailsStr)
                  200304dc    00000004     str.o (.data.ap_start_txp_optionDetailsStr)
                  200304e0    00000004     str.o (.data.ap_stop_DetailsStr)
                  200304e4    00000004     str.o (.data.cca_th1_optionDetailStr)
                  200304e8    00000004     str.o (.data.cca_th2_optionDetailStr)
                  200304ec    00000004     str.o (.data.cca_th3_optionDetailStr)
                  200304f0    00000004     str.o (.data.cca_th4_optionDetailStr)
                  200304f4    00000004     str.o (.data.cca_th5_optionDetailStr)
                  200304f8    00000004     str.o (.data.cca_th6_optionDetailStr)
                  200304fc    00000004     str.o (.data.cca_th_optionDetailStr)
                  20030500    00000004     str.o (.data.clearDetailsStr)
                  20030504    00000004     str.o (.data.createFilter_a_optionDetailsStr)
                  20030508    00000004     str.o (.data.createFilter_e_optionDetailsStr)
                  2003050c    00000004     str.o (.data.createFilter_f_optionDetailsStr)
                  20030510    00000004     str.o (.data.createFilter_i_optionDetailsStr)
                  20030514    00000004     str.o (.data.createFilter_m_optionDetailsStr)
                  20030518    00000004     str.o (.data.createFilter_o_optionDetailsStr)
                  2003051c    00000004     str.o (.data.createFilter_v_optionDetailsStr)
                  20030520    00000004     str.o (.data.creteFilterDetailsStr)
                  20030524    00000004     str.o (.data.deleteFilterDetailsStr)
                  20030528    00000004     str.o (.data.descriptionStr)
                  2003052c    00000004     str.o (.data.disableFilterDetailsStr)
                  20030530    00000004     str.o (.data.enableFilterDetailsStr)
                  20030534    00000004     str.o (.data.enableWoWLANDetailsStr)
                  20030538    00000004     str.o (.data.enableWoWLAN_Note_optionDetailsStr)
                  2003053c    00000004     str.o (.data.enableWoWLAN_i_optionDetailsStr)
                  20030540    00000004     str.o (.data.enableWoWLAN_u_optionDetailsStr)
                  20030544    00000004     str.o (.data.enableWoWLAN_v_optionDetailsStr)
                  20030548    00000004     str.o (.data.ext_optionStr)
                  2003054c    00000004     network_terminal.o (.data.gMaxCmd)
                  20030550    00000004     network_terminal.o (.data.gSpawn_thread)
                  20030554    00000004     simplelink.a : cc_pal.obj (.data.g_intHandle)
                  20030558    00000004                  : driver.obj (.data.g_pCB)
                  2003055c    00000004     str.o (.data.gw_optionStr)
                  20030560    00000004     str.o (.data.helpDetailsStr)
                  20030564    00000004     str.o (.data.help_optaionDetails)
                  20030568    00000004     str.o (.data.ip_optionStr)
                  2003056c    00000004     libc.a : strtok.c.obj (.data.last_end)
                  20030570    00000004     str.o (.data.mDNSAdvertiseDetailsStr)
                  20030574    00000004     str.o (.data.mDNSAdvertise_n_optionDetailsStr)
                  20030578    00000004     str.o (.data.mDNSAdvertise_p_optionDetailsStr)
                  2003057c    00000004     str.o (.data.mDNSAdvertise_so_optionDetailsStr)
                  20030580    00000004     str.o (.data.mDNSAdvertise_st_optionDetailsStr)
                  20030584    00000004     str.o (.data.mDNSAdvertise_t_optionDetailsStr)
                  20030588    00000004     str.o (.data.mDNSAdvertise_ttl_optionDetailsStr)
                  2003058c    00000004     str.o (.data.mDNSdQueryDetailsStr)
                  20030590    00000004     str.o (.data.mDNSdQuery_n_optionDetailsStr)
                  20030594    00000004     str.o (.data.mDNSdQuery_o_optionDetailsStr)
                  20030598    00000004     str.o (.data.mDNSdQuery_so_optionDetailsStr)
                  2003059c    00000004     str.o (.data.mDNSdQuery_st_optionDetailsStr)
                  200305a0    00000004     str.o (.data.nb_optionStr)
                  200305a4    00000004     str.o (.data.p2pStartDetailsStr)
                  200305a8    00000004     str.o (.data.p2pStopDetailsStr)
                  200305ac    00000004     simplelink.a : driver.obj (.data.pPingCallBackFunc)
                  200305b0    00000004     str.o (.data.pingDetailsStr)
                  200305b4    00000004     str.o (.data.ping_c_optionDetailsStr)
                  200305b8    00000004     str.o (.data.ping_h_optionDetailsStr)
                  200305bc    00000004     str.o (.data.ping_i_optionDetailsStr)
                  200305c0    00000004     str.o (.data.ping_s_optionDetailsStr)
                  200305c4    00000004     str.o (.data.ping_t_optionDetailsStr)
                  200305c8    00000004     str.o (.data.priority_optionStr)
                  200305cc    00000004     str.o (.data.recvDetailsStr)
                  200305d0    00000004     str.o (.data.recvUsage1Str)
                  200305d4    00000004     str.o (.data.recvUsage2Str)
                  200305d8    00000004     str.o (.data.recv_6_optionDetailsStr)
                  200305dc    00000004     str.o (.data.recv_c_optionDetailsStr)
                  200305e0    00000004     str.o (.data.recv_nb_optionDetailsStr)
                  200305e4    00000004     str.o (.data.recv_p_optionDetailsStr)
                  200305e8    00000004     str.o (.data.recv_s_optionDetailsStr)
                  200305ec    00000004     str.o (.data.recv_u_optionDetailsStr)
                  200305f0    00000004     str.o (.data.scanDetailsStr)
                  200305f4    00000004     str.o (.data.scan_Note_optionDetailsStr)
                  200305f8    00000004     str.o (.data.scan_ext_optionDetailsStr)
                  200305fc    00000004     str.o (.data.scan_n_optionDetailsStr)
                  20030600    00000004     str.o (.data.sendDetailsStr)
                  20030604    00000004     str.o (.data.setPolicyDetailsStr)
                  20030608    00000004     str.o (.data.setPolicy_c_optionDetailsStr)
                  2003060c    00000004     str.o (.data.setPolicy_d_optionDetailsStr)
                  20030610    00000004     str.o (.data.setPolicy_h_optionDetailsStr)
                  20030614    00000004     str.o (.data.setPolicy_i_optionDetailsStr)
                  20030618    00000004     str.o (.data.setPolicy_o_optionDetailsStr)
                  2003061c    00000004     str.o (.data.setPolicy_r_optionDetailsStr)
                  20030620    00000004     str.o (.data.so_optionStr)
                  20030624    00000004     str.o (.data.st_optionStr)
                  20030628    00000004     str.o (.data.wlanAddProfileDetailsStr)
                  2003062c    00000004     str.o (.data.wlanConnectDetailsStr)
                  20030630    00000004     str.o (.data.wlanConnect_dns_optionDetailsStr)
                  20030634    00000004     str.o (.data.wlanConnect_ent_optionDetailStr)
                  20030638    00000004     str.o (.data.wlanConnect_gw_optionDetailsStr)
                  2003063c    00000004     str.o (.data.wlanConnect_ip_optionDetailsStr)
                  20030640    00000004     str.o (.data.wlanConnect_p_optionDetailsStr)
                  20030644    00000004     str.o (.data.wlanConnect_s_optionDetailsStr)
                  20030648    00000004     str.o (.data.wlanConnect_t_optionDetailsStr)
                  2003064c    00000004     str.o (.data.wlanDisConnectDetailsStr)
                  20030650    00000004     str.o (.data.wlanGetProfileDetailsStr)
                  20030654    00000004     str.o (.data.wlanProfile_i_optionDetailsStr)
                  20030658    00000004     str.o (.data.wlanProfile_mac_optionDetailsStr)
                  2003065c    00000004     str.o (.data.wlanProfile_pr_optionDetailsStr)
                  20030660    00000003     str.o (.data.e_optionStr)
                  20030663    00000003     str.o (.data.f_optionStr)
                  20030666    00000003     str.o (.data.g_optionStr)
                  20030669    00000003     str.o (.data.h_optionStr)
                  2003066c    00000003     str.o (.data.i_optionStr)
                  2003066f    00000003     str.o (.data.l_optionStr)
                  20030672    00000003     str.o (.data.lineBreak)
                  20030675    00000003     str.o (.data.m_optionStr)
                  20030678    00000003     str.o (.data.n_optionStr)
                  2003067b    00000003     str.o (.data.o_optionStr)
                  2003067e    00000003     str.o (.data.p_optionStr)
                  20030681    00000003     str.o (.data.r_optionStr)
                  20030684    00000003     str.o (.data.s_optionStr)
                  20030687    00000003     str.o (.data.t_optionStr)
                  2003068a    00000003     str.o (.data.u_optionStr)
                  2003068d    00000003     str.o (.data.v_optionStr)
                  20030690    00000002     str.o (.data.space_str)
                  20030692    00000001     drivers_cc32xx.a : GPIOCC32XX.c.obj (.data.initCalled)
                  20030693    00000001                      : SPI.c.obj (.data.isInitialized)
                  20030694    00000001                      : GPIOCC32XX.c.obj (.data.portHwiCreatedBitMask)

.stack     0    20003c00    00000400     UNINITIALIZED
                  20003c00    00000004     sysbios.a : boot_cortex_m.c.obj (.stack)
                  20003c04    000003fc     --HOLE--

.rodata    0    20025860    00006d40     
                  20025860    00000185     str.o (.rodata.str1.147084017446030452011)
                  200259e5    0000010d     str.o (.rodata.str1.8461251196447551901)
                  20025af2    0000000e     cmd_parser.o (.rodata.str1.121914168363038636191)
                  20025b00    00000101     libc.a : aeabi_ctype.S.obj (.rodata:__aeabi_ctype_table_)
                  20025c01    00000003     wlan_cmd.o (.rodata.str1.117311802206070696481)
                  20025c04    00000100     driverlib.a : pin.obj (.rodata.g_ulPinToPadMap)
                  20025d04    000000e1     str.o (.rodata.str1.19693241919242867841)
                  20025de5    00000003     cmd_parser.o (.rodata.str1.129111847197883280381)
                  20025de8    000000a8     driverlib.a : prcm.obj (.rodata.PRCM_PeriphRegsList)
                  20025e90    000000a5     str.o (.rodata.str1.21505435085959055981)
                  20025f35    0000009d     wlan_cmd.o (.rodata.str1.38325204366243286551)
                  20025fd2    00000091     wlan_cmd.o (.rodata.str1.164268123904971335151)
                  20026063    0000008b     str.o (.rodata.str1.6560038998215769241)
                  200260ee    00000086     wlan_cmd.o (.rodata.str1.35453638829176048861)
                  20026174    00000086     ti_sysbios_config.o (.rodata.ti_sysbios_heaps_HeapMem_alloc.err)
                  200261fa    00000085     str.o (.rodata.str1.37246929721465135441)
                  2002627f    00000083     str.o (.rodata.str1.129234998380990294541)
                  20026302    00000082     ti_sysbios_config.o (.rodata.ti_sysbios_family_arm_m3_Hwi_Instance_init.err.1)
                  20026384    00000082     ti_sysbios_config.o (.rodata.ti_sysbios_runtime_Memory_alloc.err)
                  20026406    00000081     wlan_cmd.o (.rodata.str1.43533685201718853111)
                  20026487    00000080     cmd_parser.o (.rodata.str1.169329403578112807311)
                  20026507    0000007f     ti_sysbios_config.o (.rodata.ti_sysbios_family_arm_m3_Hwi_Instance_init.err)
                  20026586    0000007d     ti_sysbios_config.o (.rodata.ti_sysbios_family_arm_m3_Timer_Instance_init.err.61)
                  20026603    0000007b     cmd_parser.o (.rodata.str1.31224944706183912501)
                  2002667e    0000007a     str.o (.rodata.str1.27909873830170907161)
                  200266f8    0000007a     ti_sysbios_config.o (.rodata.ti_sysbios_family_arm_m3_Timer_Instance_init.err)
                  20026772    00000002     cmd_parser.o (.rodata..L.str.64)
                  20026774    00000078     ti_drivers_config.o (.rodata.spiCC32XXDMAHWAttrs)
                  200267ec    00000078     str.o (.rodata.str1.40780296501465148021)
                  20026864    00000077     str.o (.rodata.str1.40222699597804570911)
                  200268db    00000072     transceiver_cmd.o (.rodata.str1.31263261710725370181)
                  2002694d    00000071     wlan_cmd.o (.rodata.str1.35360169478354535791)
                  200269be    00000070     simplelink.a : driver.obj (.rodata.OpcodeTranslateTable)
                  20026a2e    00000070     str.o (.rodata.str1.115822697178834786821)
                  20026a9e    00000070     str.o (.rodata.str1.128157869431168904941)
                  20026b0e    0000006d     str.o (.rodata.str1.18833713445168939411)
                  20026b7b    0000006c     wlan_cmd.o (.rodata.str1.32813968242610013901)
                  20026be7    0000006b     str.o (.rodata.str1.70434943648301738761)
                  20026c52    0000006a     network_terminal.o (.rodata.str1.48056321940936381031)
                  20026cbc    0000006a     wlan_cmd.o (.rodata.str1.75940546430539445391)
                  20026d26    0000006a     str.o (.rodata.str1.84616347658179991261)
                  20026d90    00000068     str.o (.rodata.str1.180080037208613908921)
                  20026df8    00000066     str.o (.rodata.str1.44099482620221685921)
                  20026e5e    00000065     str.o (.rodata.str1.134959141836000638371)
                  20026ec3    00000064     str.o (.rodata.str1.95244052534236743971)
                  20026f27    00000061     str.o (.rodata.str1.6160681010082240971)
                  20026f88    00000060     wlan_cmd.o (.rodata.str1.22771793990220383231)
                  20026fe8    00000060     transceiver_cmd.o (.rodata.str1.31356212845841229651)
                  20027048    0000005f     str.o (.rodata.str1.113905744987582793021)
                  200270a7    0000005f     cmd_parser.o (.rodata.str1.147147514148586979821)
                  20027106    0000005f     network_terminal.o (.rodata.str1.6102932243402932661)
                  20027165    0000005e     str.o (.rodata.str1.85131289520808992011)
                  200271c3    0000005d     cmd_parser.o (.rodata.str1.10211858038811402981)
                  20027220    0000005d     transceiver_cmd.o (.rodata.str1.119237932323934404771)
                  2002727d    0000005d     transceiver_cmd.o (.rodata.str1.74385977797113727101)
                  200272da    0000005b     cmd_parser.o (.rodata.str1.24439243590848903581)
                  20027335    0000005b     str.o (.rodata.str1.59650375044591052241)
                  20027390    00000058     cmd_parser.o (.rodata.str1.146024653793464777101)
                  200273e8    00000058     str.o (.rodata.str1.16564453652647729951)
                  20027440    00000057     cmd_parser.o (.rodata.str1.153145419942221228971)
                  20027497    00000057     wlan_cmd.o (.rodata.str1.72443688332476894111)
                  200274ee    00000057     cmd_parser.o (.rodata.str1.82789177879463200521)
                  20027545    00000056     str.o (.rodata.str1.103003271900147755201)
                  2002759b    00000056     wlan_cmd.o (.rodata.str1.31451092305013224701)
                  200275f1    00000056     str.o (.rodata.str1.53281325913771673351)
                  20027647    00000055     netapp_cmd.o (.rodata.str1.153492292027724302811)
                  2002769c    00000055     socket_cmd.o (.rodata.str1.63350692922733794431)
                  200276f1    00000054     cmd_parser.o (.rodata.str1.12578979141046414941)
                  20027745    00000054     socket_cmd.o (.rodata.str1.27549011162652321)
                  20027799    00000054     cmd_parser.o (.rodata.str1.35549294055777211471)
                  200277ed    00000054     cmd_parser.o (.rodata.str1.72010113544367574811)
                  20027841    00000053     cmd_parser.o (.rodata.str1.181612328144600387441)
                  20027894    00000053     cmd_parser.o (.rodata.str1.33230116766923718951)
                  200278e7    00000052     str.o (.rodata.str1.133598968903715923811)
                  20027939    00000052     cmd_parser.o (.rodata.str1.175379028558429008761)
                  2002798b    00000052     cmd_parser.o (.rodata.str1.181307497871564598781)
                  200279dd    00000052     network_terminal.o (.rodata.str1.2355645744886977491)
                  20027a2f    00000052     str.o (.rodata.str1.90183616960364155271)
                  20027a81    00000051     cmd_parser.o (.rodata.str1.100043794158025747241)
                  20027ad2    00000051     socket_cmd.o (.rodata.str1.159880201235296988931)
                  20027b23    00000051     wlan_cmd.o (.rodata.str1.65964055806448795151)
                  20027b74    00000050     simplelink.a : driver.obj (.rodata._SlActionLookupTable)
                  20027bc4    00000050     wlan_cmd.o (.rodata.str1.139155311280222896931)
                  20027c14    00000050     cmd_parser.o (.rodata.str1.30829372559166965421)
                  20027c64    00000050     cmd_parser.o (.rodata.str1.47796698247340103401)
                  20027cb4    00000050     transceiver_cmd.o (.rodata.str1.51368263434201764831)
                  20027d04    00000050     network_terminal.o (.rodata.str1.5176290795544451361)
                  20027d54    0000004f     network_terminal.o (.rodata.str1.145239332646774976971)
                  20027da3    0000004f     network_terminal.o (.rodata.str1.85930382358858634221)
                  20027df2    0000004e     cmd_parser.o (.rodata.str1.106773911590440553551)
                  20027e40    0000004e     cmd_parser.o (.rodata.str1.1284785907537771611)
                  20027e8e    0000004e     str.o (.rodata.str1.158125556421151329671)
                  20027edc    0000004e     cmd_parser.o (.rodata.str1.170168038825044795071)
                  20027f2a    0000004e     str.o (.rodata.str1.170731664205673969041)
                  20027f78    0000004e     transceiver_cmd.o (.rodata.str1.180922916040045378701)
                  20027fc6    0000004e     str.o (.rodata.str1.183803646327907549081)
                  20028014    0000004e     netapp_cmd.o (.rodata.str1.2469241305842438441)
                  20028062    0000004d     socket_cmd.o (.rodata.str1.129114448850301303151)
                  200280af    0000004d     transceiver_cmd.o (.rodata.str1.52959210692188411011)
                  200280fc    0000004d     cmd_parser.o (.rodata.str1.6336487119621710341)
                  20028149    0000004d     cmd_parser.o (.rodata.str1.77239508908971644641)
                  20028196    0000004d     cmd_parser.o (.rodata.str1.92142493385980204201)
                  200281e3    0000004d     transceiver_cmd.o (.rodata.str1.99135717409694295851)
                  20028230    0000004c     network_terminal.o (.rodata.str1.129737042949819501361)
                  2002827c    0000004c     socket_cmd.o (.rodata.str1.38910202405366006161)
                  200282c8    0000004b     transceiver_cmd.o (.rodata.str1.119407400418523247651)
                  20028313    0000004b     cmd_parser.o (.rodata.str1.172876236957362970381)
                  2002835e    0000004b     socket_cmd.o (.rodata.str1.25666179756888489031)
                  200283a9    0000004b     socket_cmd.o (.rodata.str1.69994042868630550571)
                  200283f4    0000004a     wlan_cmd.o (.rodata.str1.34077155922667917721)
                  2002843e    0000004a     transceiver_cmd.o (.rodata.str1.743074658926235321)
                  20028488    00000049     transceiver_cmd.o (.rodata.str1.132818939974040712811)
                  200284d1    00000048     cmd_parser.o (.rodata.str1.111239618496004369391)
                  20028519    00000048     network_terminal.o (.rodata.str1.157843871196769413951)
                  20028561    00000048     netapp_cmd.o (.rodata.str1.171619808302838940761)
                  200285a9    00000048     str.o (.rodata.str1.24579485622924558261)
                  200285f1    00000048     str.o (.rodata.str1.60566890119945866171)
                  20028639    00000048     cmd_parser.o (.rodata.str1.69454661093222392231)
                  20028681    00000048     transceiver_cmd.o (.rodata.str1.86809243817883273951)
                  200286c9    00000048     cmd_parser.o (.rodata.str1.94164156593830019731)
                  20028711    00000047     transceiver_cmd.o (.rodata.str1.111825050136481207331)
                  20028758    00000047     cmd_parser.o (.rodata.str1.179311247878317104851)
                  2002879f    00000047     str.o (.rodata.str1.182006968428588361111)
                  200287e6    00000047     socket_cmd.o (.rodata.str1.35998342656317772481)
                  2002882d    00000047     str.o (.rodata.str1.99035170783630239361)
                  20028874    00000046     cmd_parser.o (.rodata.str1.116631990963828009871)
                  200288ba    00000046     transceiver_cmd.o (.rodata.str1.41443987877857632291)
                  20028900    00000046     netapp_cmd.o (.rodata.str1.64077369020280269271)
                  20028946    00000046     str.o (.rodata.str1.79876940361150198651)
                  2002898c    00000046     transceiver_cmd.o (.rodata.str1.90164565832260745221)
                  200289d2    00000045     wlan_cmd.o (.rodata.str1.107139902848420098991)
                  20028a17    00000045     transceiver_cmd.o (.rodata.str1.10987043592401347581)
                  20028a5c    00000045     wlan_cmd.o (.rodata.str1.11550669119561432901)
                  20028aa1    00000045     netapp_cmd.o (.rodata.str1.123681591971857569421)
                  20028ae6    00000045     network_terminal.o (.rodata.str1.126253991576511036971)
                  20028b2b    00000045     cmd_parser.o (.rodata.str1.130863354507309225021)
                  20028b70    00000045     socket_cmd.o (.rodata.str1.180480205394567686891)
                  20028bb5    00000045     transceiver_cmd.o (.rodata.str1.37040311790321830901)
                  20028bfa    00000045     network_terminal.o (.rodata.str1.54395402227867928741)
                  20028c3f    00000045     wlan_cmd.o (.rodata.str1.58617276783918600951)
                  20028c84    00000045     str.o (.rodata.str1.70259256275656660851)
                  20028cc9    00000045     str.o (.rodata.str1.73245445644961056681)
                  20028d0e    00000045     network_terminal.o (.rodata.str1.7486611684309105601)
                  20028d53    00000045     transceiver_cmd.o (.rodata.str1.90116668593132261841)
                  20028d98    00000045     str.o (.rodata.str1.93636018503826173681)
                  20028ddd    00000003     wlan_cmd.o (.rodata.str1.130400973387931061601)
                  20028de0    00000044     ti_drivers_config.o (.rodata.PowerCC32XX_config)
                  20028e24    00000044     str.o (.rodata.str1.2053827192666528551)
                  20028e68    00000044     network_terminal.o (.rodata.str1.93439693614297674481)
                  20028eac    00000043     socket_cmd.o (.rodata.str1.116067995000629854141)
                  20028eef    00000043     transceiver_cmd.o (.rodata.str1.122308208372206851081)
                  20028f32    00000043     transceiver_cmd.o (.rodata.str1.131109250077412892481)
                  20028f75    00000043     wlan_cmd.o (.rodata.str1.157204319526166660051)
                  20028fb8    00000043     network_terminal.o (.rodata.str1.157561119751564843181)
                  20028ffb    00000043     netapp_cmd.o (.rodata.str1.166610066450005028211)
                  2002903e    00000043     transceiver_cmd.o (.rodata.str1.175830645002371887051)
                  20029081    00000043     netapp_cmd.o (.rodata.str1.38122349505182437791)
                  200290c4    00000043     wlan_cmd.o (.rodata.str1.5115511916980454251)
                  20029107    00000043     str.o (.rodata.str1.61994367487363585481)
                  2002914a    00000042     transceiver_cmd.o (.rodata.str1.118563860143967830481)
                  2002918c    00000042     transceiver_cmd.o (.rodata.str1.5190884915162626621)
                  200291ce    00000042     str.o (.rodata.str1.74682255969540996751)
                  20029210    00000041     network_terminal.o (.rodata.str1.116731053715151503361)
                  20029251    00000041     netapp_cmd.o (.rodata.str1.17797149128273038071)
                  20029292    00000041     socket_cmd.o (.rodata.str1.58715216912440581431)
                  200292d3    00000041     network_terminal.o (.rodata.str1.68844619382100133541)
                  20029314    00000041     transceiver_cmd.o (.rodata.str1.6920766580648323131)
                  20029355    00000041     socket_cmd.o (.rodata.str1.72963680279279274551)
                  20029396    00000041     wlan_cmd.o (.rodata.str1.98655326362976489291)
                  200293d7    00000041     transceiver_cmd.o (.rodata.str1.99286992951998219201)
                  20029418    00000040     netapp_cmd.o (.rodata.str1.105601000692451337031)
                  20029458    00000040     network_terminal.o (.rodata.str1.108621046157384215011)
                  20029498    00000040     transceiver_cmd.o (.rodata.str1.13594398903488056531)
                  200294d8    00000040     str.o (.rodata.str1.140731151316047701031)
                  20029518    00000040     transceiver_cmd.o (.rodata.str1.15244066073624037031)
                  20029558    00000040     netapp_cmd.o (.rodata.str1.180218530014331199791)
                  20029598    00000040     transceiver_cmd.o (.rodata.str1.41247336863202500991)
                  200295d8    00000040     wlan_cmd.o (.rodata.str1.64267270651527804601)
                  20029618    0000003f     network_terminal.o (.rodata.str1.164185382394108682841)
                  20029657    0000003f     socket_cmd.o (.rodata.str1.175322209789734471741)
                  20029696    0000003e     socket_cmd.o (.rodata.str1.11088633359493083171)
                  200296d4    0000003e     cmd_parser.o (.rodata.str1.140445226663738502861)
                  20029712    0000003e     str.o (.rodata.str1.167074393192365286031)
                  20029750    0000003e     str.o (.rodata.str1.34856195062439578661)
                  2002978e    0000003e     str.o (.rodata.str1.70079133186511355451)
                  200297cc    0000003e     network_terminal.o (.rodata.str1.98067448963112355411)
                  2002980a    0000003d     wlan_cmd.o (.rodata.str1.128132671066453152531)
                  20029847    0000003d     cmd_parser.o (.rodata.str1.129947668147590295051)
                  20029884    0000003d     str.o (.rodata.str1.14373675216034630651)
                  200298c1    0000003d     str.o (.rodata.str1.146305443884172306031)
                  200298fe    0000003d     wlan_cmd.o (.rodata.str1.164613637719424808761)
                  2002993b    0000003d     str.o (.rodata.str1.79097884968060046161)
                  20029978    0000003d     wlan_cmd.o (.rodata.str1.92743113765747317911)
                  200299b5    0000003c     socket_cmd.o (.rodata.str1.12920050978311270581)
                  200299f1    0000003c     transceiver_cmd.o (.rodata.str1.149997811050567256321)
                  20029a2d    0000003c     transceiver_cmd.o (.rodata.str1.64065649348434911891)
                  20029a69    0000003c     netapp_cmd.o (.rodata.str1.79835560051450528631)
                  20029aa5    0000003b     transceiver_cmd.o (.rodata.str1.107443589451393723451)
                  20029ae0    0000003b     wlan_cmd.o (.rodata.str1.11138456067330577331)
                  20029b1b    0000003b     transceiver_cmd.o (.rodata.str1.111503491739110123471)
                  20029b56    0000003b     network_terminal.o (.rodata.str1.70342926790113052501)
                  20029b91    0000003b     transceiver_cmd.o (.rodata.str1.91971131498310980591)
                  20029bcc    0000003b     str.o (.rodata.str1.97602031025235050701)
                  20029c07    0000003a     str.o (.rodata.str1.44858963628986385371)
                  20029c41    0000003a     transceiver_cmd.o (.rodata.str1.60966980761050645781)
                  20029c7b    00000039     str.o (.rodata.str1.153075464458300274411)
                  20029cb4    00000039     str.o (.rodata.str1.16204041005492720001)
                  20029ced    00000039     netapp_cmd.o (.rodata.str1.165571562538452994001)
                  20029d26    00000039     transceiver_cmd.o (.rodata.str1.51633567654098998541)
                  20029d5f    00000039     str.o (.rodata.str1.60506054613213360941)
                  20029d98    00000039     wlan_cmd.o (.rodata.str1.6662336300001457601)
                  20029dd1    00000038     cmd_parser.o (.rodata.str1.107748176860174261651)
                  20029e09    00000038     netapp_cmd.o (.rodata.str1.132843745972103182441)
                  20029e41    00000038     transceiver_cmd.o (.rodata.str1.148437792586958665791)
                  20029e79    00000038     wlan_cmd.o (.rodata.str1.164518929926636783381)
                  20029eb1    00000038     cmd_parser.o (.rodata.str1.1913066317737724291)
                  20029ee9    00000038     wlan_cmd.o (.rodata.str1.72816034909352426071)
                  20029f21    00000038     network_terminal.o (.rodata.str1.77022417716027965001)
                  20029f59    00000003     cmd_parser.o (.rodata.str1.137253669397284851221)
                  20029f5c    00000038     ti_drivers_config.o (.rodata.uart2CC32XXHWAttrs0)
                  20029f94    00000037     transceiver_cmd.o (.rodata.str1.115995099208219363251)
                  20029fcb    00000037     wlan_cmd.o (.rodata.str1.116564366110167856731)
                  2002a002    00000037     transceiver_cmd.o (.rodata.str1.148138584727950498041)
                  2002a039    00000037     wlan_cmd.o (.rodata.str1.165106507885925769881)
                  2002a070    00000037     network_terminal.o (.rodata.str1.68371354638791305291)
                  2002a0a7    00000037     netapp_cmd.o (.rodata.str1.97003054116758470621)
                  2002a0de    00000036     wlan_cmd.o (.rodata.str1.12114264950762720681)
                  2002a114    00000036     network_terminal.o (.rodata.str1.122097238333621364871)
                  2002a14a    00000036     str.o (.rodata.str1.137433847964569175611)
                  2002a180    00000036     str.o (.rodata.str1.2772518937588115691)
                  2002a1b6    00000036     transceiver_cmd.o (.rodata.str1.52567281011993745851)
                  2002a1ec    00000036     transceiver_cmd.o (.rodata.str1.6665036264022443671)
                  2002a222    00000036     wlan_cmd.o (.rodata.str1.73391842910421374461)
                  2002a258    00000035     str.o (.rodata.str1.106142373050857526451)
                  2002a28d    00000035     wlan_cmd.o (.rodata.str1.106735025191152380221)
                  2002a2c2    00000035     str.o (.rodata.str1.11007602543593455471)
                  2002a2f7    00000035     str.o (.rodata.str1.21095029967302704661)
                  2002a32c    00000035     str.o (.rodata.str1.27266224729698707561)
                  2002a361    00000035     wlan_cmd.o (.rodata.str1.30504553297139646351)
                  2002a396    00000035     str.o (.rodata.str1.50625545014633284671)
                  2002a3cb    00000035     str.o (.rodata.str1.69121167942843094721)
                  2002a400    00000035     wlan_cmd.o (.rodata.str1.79123938315884213441)
                  2002a435    00000035     str.o (.rodata.str1.8672771027503913571)
                  2002a46a    00000035     str.o (.rodata.str1.91497210210184411941)
                  2002a49f    00000035     str.o (.rodata.str1.96886206722332611761)
                  2002a4d4    00000034     ti_drivers_net_wifi_config.o (.rodata.SimpleLinkWifiCC32XX_config)
                  2002a508    00000034     transceiver_cmd.o (.rodata.str1.137987448340996369331)
                  2002a53c    00000034     wlan_cmd.o (.rodata.str1.162562875566307292011)
                  2002a570    00000034     transceiver_cmd.o (.rodata.str1.176898707770572506601)
                  2002a5a4    00000034     transceiver_cmd.o (.rodata.str1.30788260946022680661)
                  2002a5d8    00000034     netapp_cmd.o (.rodata.str1.4569043121279586961)
                  2002a60c    00000034     cmd_parser.o (.rodata.str1.52228054034334836421)
                  2002a640    00000034     transceiver_cmd.o (.rodata.str1.913568581308189431)
                  2002a674    00000033     transceiver_cmd.o (.rodata.str1.13483500557395338891)
                  2002a6a7    00000033     transceiver_cmd.o (.rodata.str1.147405036072255375741)
                  2002a6da    00000033     network_terminal.o (.rodata.str1.163636257044521687081)
                  2002a70d    00000033     wlan_cmd.o (.rodata.str1.164669198490495149391)
                  2002a740    00000033     network_terminal.o (.rodata.str1.166773434416765168131)
                  2002a773    00000033     str.o (.rodata.str1.16853368162254944301)
                  2002a7a6    00000033     wlan_cmd.o (.rodata.str1.61064774082585901921)
                  2002a7d9    00000033     transceiver_cmd.o (.rodata.str1.69059865329364077331)
                  2002a80c    00000032     network_terminal.o (.rodata.str1.183999267061721434351)
                  2002a83e    00000032     str.o (.rodata.str1.36051944812891207781)
                  2002a870    00000031     wlan_cmd.o (.rodata.str1.124333723803363695581)
                  2002a8a1    00000031     str.o (.rodata.str1.183266486543541748421)
                  2002a8d2    00000031     transceiver_cmd.o (.rodata.str1.32517166777317069291)
                  2002a903    00000031     transceiver_cmd.o (.rodata.str1.41318696721967870611)
                  2002a934    00000031     str.o (.rodata.str1.5829726493215560601)
                  2002a965    00000031     transceiver_cmd.o (.rodata.str1.91284920582066369041)
                  2002a996    00000030     transceiver_cmd.o (.rodata.str1.177738118125317434651)
                  2002a9c6    0000002f     str.o (.rodata.str1.103789574388905964941)
                  2002a9f5    0000002f     network_terminal.o (.rodata.str1.115643712493039549281)
                  2002aa24    0000002f     socket_cmd.o (.rodata.str1.125986624019227299621)
                  2002aa53    0000002f     str.o (.rodata.str1.13987159564106464951)
                  2002aa82    0000002f     netapp_cmd.o (.rodata.str1.154293483264915281911)
                  2002aab1    0000002f     wlan_cmd.o (.rodata.str1.38566316861166834071)
                  2002aae0    0000002f     network_terminal.o (.rodata.str1.99965156505352486001)
                  2002ab0f    0000002e     wlan_cmd.o (.rodata.str1.102144453412492559391)
                  2002ab3d    0000002e     wlan_cmd.o (.rodata.str1.150052713846181826601)
                  2002ab6b    0000002e     transceiver_cmd.o (.rodata.str1.16096194538987398881)
                  2002ab99    0000002e     str.o (.rodata.str1.16716812721997686091)
                  2002abc7    0000002e     cmd_parser.o (.rodata.str1.35443976496686930441)
                  2002abf5    0000002e     transceiver_cmd.o (.rodata.str1.43426062093673251551)
                  2002ac23    0000002e     socket_cmd.o (.rodata.str1.46273860840758631601)
                  2002ac51    0000002e     transceiver_cmd.o (.rodata.str1.72005218013380949901)
                  2002ac7f    0000002d     str.o (.rodata.str1.1202600069925351811)
                  2002acac    0000002d     network_terminal.o (.rodata.str1.23607069639083426991)
                  2002acd9    0000002c     transceiver_cmd.o (.rodata.str1.102453147754831554601)
                  2002ad05    0000002c     transceiver_cmd.o (.rodata.str1.10330787470543405851)
                  2002ad31    0000002c     netapp_cmd.o (.rodata.str1.134941697297040381631)
                  2002ad5d    0000002c     wlan_cmd.o (.rodata.str1.153002189278818594751)
                  2002ad89    0000002c     network_terminal.o (.rodata.str1.167533780478032445621)
                  2002adb5    0000002c     str.o (.rodata.str1.33351981097531630711)
                  2002ade1    0000002c     network_terminal.o (.rodata.str1.44462187442739304111)
                  2002ae0d    0000002c     wlan_cmd.o (.rodata.str1.89684486739580045861)
                  2002ae39    0000002c     wlan_cmd.o (.rodata.str1.91311023921656712471)
                  2002ae65    0000002b     network_terminal.o (.rodata.str1.71380754462813282091)
                  2002ae90    0000002b     str.o (.rodata.str1.82969298247668591861)
                  2002aebb    0000002a     transceiver_cmd.o (.rodata.str1.124934465838197576421)
                  2002aee5    0000002a     network_terminal.o (.rodata.str1.145860742698427199691)
                  2002af0f    0000002a     str.o (.rodata.str1.156302957479080025871)
                  2002af39    0000002a     socket_cmd.o (.rodata.str1.49534549057027026971)
                  2002af63    00000029     network_terminal.o (.rodata.str1.23398553201943565331)
                  2002af8c    00000029     network_terminal.o (.rodata.str1.47491129023049929861)
                  2002afb5    00000003     transceiver_cmd.o (.rodata.str1.151545290946870238751)
                  2002afb8    00000028     drivers_cc32xx.a : GPIOCC32XX.c.obj (.rodata.portConfigs)
                  2002afe0    00000028     transceiver_cmd.o (.rodata.str1.69810550340782242231)
                  2002b008    00000027     wlan_cmd.o (.rodata.str1.11513626083061898761)
                  2002b02f    00000027     str.o (.rodata.str1.14150352992683361681)
                  2002b056    00000027     network_terminal.o (.rodata.str1.150390397442866721991)
                  2002b07d    00000027     str.o (.rodata.str1.182067082697060533421)
                  2002b0a4    00000027     wlan_cmd.o (.rodata.str1.49733698843858089981)
                  2002b0cb    00000026     str.o (.rodata.str1.137794169403292268981)
                  2002b0f1    00000026     str.o (.rodata.str1.179409019711669379641)
                  2002b117    00000026     str.o (.rodata.str1.18197248353929403221)
                  2002b13d    00000026     transceiver_cmd.o (.rodata.str1.57526899885645074881)
                  2002b163    00000026     transceiver_cmd.o (.rodata.str1.87591529101301500671)
                  2002b189    00000025     cmd_parser.o (.rodata.str1.104606272068349348421)
                  2002b1ae    00000025     str.o (.rodata.str1.179151431039839132991)
                  2002b1d3    00000025     transceiver_cmd.o (.rodata.str1.41954346833282509911)
                  2002b1f8    00000025     str.o (.rodata.str1.66758712895715120351)
                  2002b21d    00000025     str.o (.rodata.str1.97234041810929205511)
                  2002b242    00000002     drivers_cc32xx.a : UART2CC32XX.c.obj (.rodata.stopBits)
                  2002b244    00000024                      : UART2.c.obj (.rodata.UART2_defaultParams)
                  2002b268    00000024     network_terminal.o (.rodata.str1.137389257488011708761)
                  2002b28c    00000024     network_terminal.o (.rodata.str1.24388381563552603811)
                  2002b2b0    00000024     str.o (.rodata.str1.44216456638506141421)
                  2002b2d4    00000024     socket_cmd.o (.rodata.str1.67118233029267118151)
                  2002b2f8    00000024     network_terminal.o (.rodata.str1.70107090545595803181)
                  2002b31c    00000024     ti_sysbios_config.o (.rodata.ti_sysbios_knl_Task_Params_default)
                  2002b340    00000023     network_terminal.o (.rodata.str1.165019776067480867531)
                  2002b363    00000023     socket_cmd.o (.rodata.str1.180115983723690187651)
                  2002b386    00000023     str.o (.rodata.str1.45597210824589165011)
                  2002b3a9    00000023     netapp_cmd.o (.rodata.str1.62424885958856030411)
                  2002b3cc    00000023     cmd_parser.o (.rodata.str1.75919028358658903391)
                  2002b3ef    00000023     socket_cmd.o (.rodata.str1.93988820794767238551)
                  2002b412    00000022     wlan_cmd.o (.rodata.str1.118728596485503380761)
                  2002b434    00000022     str.o (.rodata.str1.22917178297253998061)
                  2002b456    00000022     str.o (.rodata.str1.69702860252276818431)
                  2002b478    00000021     drivers_cc32xx.a : GPIOCC32XX.c.obj (.rodata.pinTable)
                  2002b499    00000021     cmd_parser.o (.rodata.str1.31910729621728970581)
                  2002b4ba    00000021     network_terminal.o (.rodata.str1.95524612712129008951)
                  2002b4db    00000001     ti_drivers_config.o (.rodata.GPIO_pinUpperBound)
                  2002b4dc    00000020     simplelink.a : driver.obj (.rodata.RxMsgClassLUT)
                  2002b4fc    00000020     drivers_cc32xx.a : SPI.c.obj (.rodata.SPI_defaultParams)
                  2002b51c    00000020     simplelink.a : device.obj (.rodata.StartResponseLUT)
                  2002b53c    00000020     wlan_cmd.o (.rodata.str1.102565613973086921781)
                  2002b55c    00000020     netapp_cmd.o (.rodata.str1.10279558384080813431)
                  2002b57c    00000020     cmd_parser.o (.rodata.str1.134245746622111108371)
                  2002b59c    00000020     wlan_cmd.o (.rodata.str1.135856274643372878111)
                  2002b5bc    00000020     transceiver_cmd.o (.rodata.str1.154319589421489459361)
                  2002b5dc    00000020     network_terminal.o (.rodata.str1.161762125665629882181)
                  2002b5fc    00000020     wlan_cmd.o (.rodata.str1.178105154749433897441)
                  2002b61c    00000020     cmd_parser.o (.rodata.str1.183775004452698202631)
                  2002b63c    00000020     wlan_cmd.o (.rodata.str1.46851509015938535481)
                  2002b65c    00000020     transceiver_cmd.o (.rodata.str1.47879354528684741201)
                  2002b67c    00000020     str.o (.rodata.str1.54507463756280811711)
                  2002b69c    00000020     str.o (.rodata.str1.60211807880949227141)
                  2002b6bc    00000020     transceiver_cmd.o (.rodata.str1.61155094754064559901)
                  2002b6dc    00000020     socket_cmd.o (.rodata.str1.95861201081461382961)
                  2002b6fc    0000001f     str.o (.rodata.str1.129480415708599346841)
                  2002b71b    0000001f     str.o (.rodata.str1.171149473946853514451)
                  2002b73a    0000001f     wlan_cmd.o (.rodata.str1.181708308484773938391)
                  2002b759    0000001f     socket_cmd.o (.rodata.str1.3430505213331178991)
                  2002b778    0000001f     transceiver_cmd.o (.rodata.str1.5962586812777039231)
                  2002b797    0000001f     str.o (.rodata.str1.77423236295079942401)
                  2002b7b6    0000001f     network_terminal.o (.rodata.str1.94856133688732151241)
                  2002b7d5    0000001e     cmd_parser.o (.rodata.str1.129339702367233934011)
                  2002b7f3    0000001e     str.o (.rodata.str1.134678316488095566911)
                  2002b811    0000001e     str.o (.rodata.str1.173656755423227251261)
                  2002b82f    0000001e     uart_term.o (.rodata.str1.51635023166755676511)
                  2002b84d    0000001e     str.o (.rodata.str1.57967013511315832691)
                  2002b86b    0000001d     netapp_cmd.o (.rodata.str1.154500471312474582561)
                  2002b888    0000001d     ti_sysbios_config.o (.rodata.str1.52039025504259797111)
                  2002b8a5    0000001d     str.o (.rodata.str1.58035343874783768161)
                  2002b8c2    0000001d     wlan_cmd.o (.rodata.str1.82581119977488522311)
                  2002b8df    0000001d     str.o (.rodata.str1.82927391788572884371)
                  2002b8fc    0000001c     transceiver_cmd.o (.rodata.str1.103480849086143293911)
                  2002b918    0000001c     str.o (.rodata.str1.107972207666184207501)
                  2002b934    0000001c     str.o (.rodata.str1.158068837742464586691)
                  2002b950    0000001c     wlan_cmd.o (.rodata.str1.53671997934043070301)
                  2002b96c    0000001c     str.o (.rodata.str1.59454288219805126321)
                  2002b988    0000001c     str.o (.rodata.str1.65562896496511418961)
                  2002b9a4    0000001c     transceiver_cmd.o (.rodata.str1.73979925394523795741)
                  2002b9c0    0000001c     ti_sysbios_config.o (.rodata.ti_sysbios_family_arm_m3_Timer_Params_default)
                  2002b9dc    0000001b     wlan_cmd.o (.rodata.str1.128773397825774987171)
                  2002b9f7    0000001b     str.o (.rodata.str1.153304181889813766971)
                  2002ba12    0000001b     transceiver_cmd.o (.rodata.str1.4095521311751812361)
                  2002ba2d    0000001b     transceiver_cmd.o (.rodata.str1.49668141840440318941)
                  2002ba48    0000001b     str.o (.rodata.str1.96902282707461731101)
                  2002ba63    0000001a     wlan_cmd.o (.rodata.str1.106629331364217146651)
                  2002ba7d    0000001a     transceiver_cmd.o (.rodata.str1.140231567715628565141)
                  2002ba97    0000001a     str.o (.rodata.str1.164957813258564489201)
                  2002bab1    00000019     str.o (.rodata.str1.131618829605526037151)
                  2002baca    00000019     str.o (.rodata.str1.148446837307792326931)
                  2002bae3    00000019     str.o (.rodata.str1.152633695878575986361)
                  2002bafc    00000019     socket_cmd.o (.rodata.str1.154005882531672086011)
                  2002bb15    00000019     str.o (.rodata.str1.157925522957489197031)
                  2002bb2e    00000019     str.o (.rodata.str1.173228255875019225081)
                  2002bb47    00000019     str.o (.rodata.str1.183623555738639088911)
                  2002bb60    00000019     str.o (.rodata.str1.23313199810004164531)
                  2002bb79    00000019     str.o (.rodata.str1.58433666965498223751)
                  2002bb92    00000019     str.o (.rodata.str1.60837470802049864041)
                  2002bbab    00000019     str.o (.rodata.str1.81641070591203823751)
                  2002bbc4    00000018     drivers_cc32xx.a : SPICC32XXDMA.c.obj (.rodata.SPICC32XXDMA_fxnTable)
                  2002bbdc    00000018     ti_drivers_config.o (.rodata.SPI_config)
                  2002bbf4    00000018     driverlib.a : spi.obj (.rodata.g_ulSPIDmaMaskMap)
                  2002bc0c    00000018     socket_cmd.o (.rodata.str1.115609244564891479551)
                  2002bc24    00000018     network_terminal.o (.rodata.str1.131031072696577584601)
                  2002bc3c    00000018     str.o (.rodata.str1.132542073928606484901)
                  2002bc54    00000018     str.o (.rodata.str1.163781438375355833591)
                  2002bc6c    00000018     str.o (.rodata.str1.183967945821429270781)
                  2002bc84    00000018     cmd_parser.o (.rodata.str1.38186083844607984551)
                  2002bc9c    00000018     wlan_cmd.o (.rodata.str1.39949339342373623591)
                  2002bcb4    00000018     ti_sysbios_config.o (.rodata.ti_sysbios_family_arm_m3_Hwi_Params_default)
                  2002bccc    00000017     network_terminal.o (.rodata.str1.108458277777670400931)
                  2002bce3    00000017     str.o (.rodata.str1.115704064866879926851)
                  2002bcfa    00000017     str.o (.rodata.str1.134865742174224995141)
                  2002bd11    00000017     str.o (.rodata.str1.142333560865374033171)
                  2002bd28    00000017     wlan_cmd.o (.rodata.str1.14236847463976236041)
                  2002bd3f    00000017     str.o (.rodata.str1.21034810682814682111)
                  2002bd56    00000017     str.o (.rodata.str1.76946362877262151071)
                  2002bd6d    00000016     str.o (.rodata.str1.109065244470775551511)
                  2002bd83    00000016     transceiver_cmd.o (.rodata.str1.2677172652137262351)
                  2002bd99    00000016     network_terminal.o (.rodata.str1.50830581114835522781)
                  2002bdaf    00000016     socket_cmd.o (.rodata.str1.92026125157500575721)
                  2002bdc5    00000015     transceiver_cmd.o (.rodata.str1.120353908597802688621)
                  2002bdda    00000015     wlan_cmd.o (.rodata.str1.20009286042188874761)
                  2002bdef    00000015     str.o (.rodata.str1.20452379582454788101)
                  2002be04    00000015     str.o (.rodata.str1.53292370562250021111)
                  2002be19    00000015     str.o (.rodata.str1.82564423548284691231)
                  2002be2e    00000014     network_terminal.o (.rodata.str1.104752313369219164631)
                  2002be42    00000014     transceiver_cmd.o (.rodata.str1.121040906787064656731)
                  2002be56    00000014     transceiver_cmd.o (.rodata.str1.126652971591460264561)
                  2002be6a    00000014     network_terminal.o (.rodata.str1.150987260278921465561)
                  2002be7e    00000014     str.o (.rodata.str1.30053908329093418211)
                  2002be92    00000014     network_terminal.o (.rodata.str1.59126019250682937681)
                  2002bea6    00000014     str.o (.rodata.str1.89865528098106754461)
                  2002beba    00000014     transceiver_cmd.o (.rodata.str1.95182071056807731141)
                  2002bece    00000014     wlan_cmd.o (.rodata.str1.98993612243306865131)
                  2002bee2    00000002     socket_cmd.o (.rodata.str1.109873052877247021591)
                  2002bee4    00000014     ti_sysbios_config.o (.rodata.ti_sysbios_knl_Swi_Params_default)
                  2002bef8    00000013     wlan_cmd.o (.rodata.str1.104101007656129639651)
                  2002bf0b    00000013     transceiver_cmd.o (.rodata.str1.180296971682711471581)
                  2002bf1e    00000013     transceiver_cmd.o (.rodata.str1.5552053626559794691)
                  2002bf31    00000013     str.o (.rodata.str1.62778025888754262561)
                  2002bf44    00000013     str.o (.rodata.str1.64272247305336269531)
                  2002bf57    00000013     cmd_parser.o (.rodata.str1.79242919904345409921)
                  2002bf6a    00000012     str.o (.rodata.str1.155561161584973478051)
                  2002bf7c    00000012     str.o (.rodata.str1.15988242609893744971)
                  2002bf8e    00000012     transceiver_cmd.o (.rodata.str1.180952615250456505681)
                  2002bfa0    00000012     wlan_cmd.o (.rodata.str1.22117280395778428651)
                  2002bfb2    00000012     str.o (.rodata.str1.29625922715921288771)
                  2002bfc4    00000012     network_terminal.o (.rodata.str1.30903428597917577541)
                  2002bfd6    00000012     wlan_cmd.o (.rodata.str1.43715263216509928211)
                  2002bfe8    00000011     libc.a : _printfi.c.obj (.rodata.str1.11645776875810915891)
                  2002bff9    00000011     str.o (.rodata.str1.122160786259323780241)
                  2002c00a    00000011     str.o (.rodata.str1.170341154342282511221)
                  2002c01b    00000011     str.o (.rodata.str1.23280730276672246961)
                  2002c02c    00000011     network_terminal.o (.rodata.str1.37763523854985528941)
                  2002c03d    00000011     libc.a : _printfi.c.obj (.rodata.str1.44690500295887128011)
                  2002c04e    00000002     cmd_parser.o (.rodata.str1.116215297532344157401)
                  2002c050    00000010     ti_drivers_config.o (.rodata.GPIO_config)
                  2002c060    00000010     str.o (.rodata.str1.102709343609362659601)
                  2002c070    00000010     str.o (.rodata.str1.115409014843928241331)
                  2002c080    00000010     wlan_cmd.o (.rodata.str1.115933649249216273931)
                  2002c090    00000010     str.o (.rodata.str1.146560209793007588561)
                  2002c0a0    00000010     cmd_parser.o (.rodata.str1.52497726538157300311)
                  2002c0b0    00000010     wlan_cmd.o (.rodata.str1.96092460219372771541)
                  2002c0c0    0000000f     str.o (.rodata.str1.110000426828976869291)
                  2002c0cf    0000000f     str.o (.rodata.str1.122124779508176459241)
                  2002c0de    0000000f     cmd_parser.o (.rodata.str1.125865792196077552531)
                  2002c0ed    0000000f     str.o (.rodata.str1.126052456849948202971)
                  2002c0fc    0000000f     wlan_cmd.o (.rodata.str1.173014987471199034701)
                  2002c10b    0000000e     cmd_parser.o (.rodata.str1.152919152413096690081)
                  2002c119    0000000e     str.o (.rodata.str1.172021624113700941921)
                  2002c127    0000000e     wlan_cmd.o (.rodata.str1.24859696855364620041)
                  2002c135    0000000e     socket_cmd.o (.rodata.str1.45854484195727246711)
                  2002c143    0000000e     wlan_cmd.o (.rodata.str1.47106972349110946331)
                  2002c151    0000000e     wlan_cmd.o (.rodata.str1.53109636001216935431)
                  2002c15f    0000000e     str.o (.rodata.str1.60563500748320614061)
                  2002c16d    0000000d     transceiver_cmd.o (.rodata.str1.102747511770751148021)
                  2002c17a    0000000d     network_terminal.o (.rodata.str1.110119014349405990001)
                  2002c187    0000000d     wlan_cmd.o (.rodata.str1.149061605222614080771)
                  2002c194    0000000d     str.o (.rodata.str1.18128716581298647981)
                  2002c1a1    0000000d     str.o (.rodata.str1.37671739324583006781)
                  2002c1ae    0000000d     wlan_cmd.o (.rodata.str1.57977471233416083751)
                  2002c1bb    0000000d     transceiver_cmd.o (.rodata.str1.79211994102648085991)
                  2002c1c8    0000000c     ti_sysbios_config.o (.rodata.defAttrs)
                  2002c1d4    0000000c     drivers_cc32xx.a : SPICC32XXDMA.c.obj (.rodata.dmaNullConfig)
                  2002c1e0    0000000c                      : SPICC32XXDMA.c.obj (.rodata.dmaRxConfig)
                  2002c1ec    0000000c                      : SPICC32XXDMA.c.obj (.rodata.dmaTxConfig)
                  2002c1f8    0000000c     socket_cmd.o (.rodata.str1.135099261948136169411)
                  2002c204    0000000c     network_terminal.o (.rodata.str1.141573064005321494761)
                  2002c210    0000000c     str.o (.rodata.str1.141979662128182245121)
                  2002c21c    0000000c     wlan_cmd.o (.rodata.str1.143219685143499682891)
                  2002c228    0000000c     transceiver_cmd.o (.rodata.str1.152079830897292690001)
                  2002c234    0000000c     str.o (.rodata.str1.51490666548976229251)
                  2002c240    0000000c     wlan_cmd.o (.rodata.str1.60164726172620253161)
                  2002c24c    0000000c     str.o (.rodata.str1.71482967442451861931)
                  2002c258    0000000c     cmd_parser.o (.rodata.str1.75289782761157667291)
                  2002c264    0000000c     wlan_cmd.o (.rodata.str1.89750950889438610571)
                  2002c270    0000000c     ti_sysbios_config.o (.rodata.ti_sysbios_heaps_HeapMem_Params_default)
                  2002c27c    0000000c     ti_sysbios_config.o (.rodata.ti_sysbios_knl_Semaphore_Params_default)
                  2002c288    0000000c     ti_drivers_config.o (.rodata.udmaCC3220SHWAttrs)
                  2002c294    0000000b     cmd_parser.o (.rodata.str1.122601685058171203531)
                  2002c29f    0000000b     network_terminal.o (.rodata.str1.136227530994426510821)
                  2002c2aa    0000000b     wlan_cmd.o (.rodata.str1.141616081303152385751)
                  2002c2b5    0000000b     cmd_parser.o (.rodata.str1.165383792712847963401)
                  2002c2c0    0000000b     str.o (.rodata.str1.16554828366602580881)
                  2002c2cb    0000000b     network_terminal.o (.rodata.str1.176513352020080071411)
                  2002c2d6    0000000b     network_terminal.o (.rodata.str1.33135013465698363401)
                  2002c2e1    0000000b     str.o (.rodata.str1.50240822540380927531)
                  2002c2ec    0000000b     cmd_parser.o (.rodata.str1.53924749426590376721)
                  2002c2f7    0000000b     cmd_parser.o (.rodata.str1.66978931229660025541)
                  2002c302    0000000b     socket_cmd.o (.rodata.str1.84987727670435466661)
                  2002c30d    0000000a     network_terminal.o (.rodata.str1.100842339952840354241)
                  2002c317    0000000a     socket_cmd.o (.rodata.str1.112929895198529598461)
                  2002c321    0000000a     str.o (.rodata.str1.151959365727524645981)
                  2002c32b    0000000a     str.o (.rodata.str1.33681418714314024271)
                  2002c335    0000000a     wlan_cmd.o (.rodata.str1.40379114502564130881)
                  2002c33f    0000000a     network_terminal.o (.rodata.str1.87191204644140088341)
                  2002c349    00000009     str.o (.rodata.str1.101669110341189410491)
                  2002c352    00000009     network_terminal.o (.rodata.str1.132548819687440929921)
                  2002c35b    00000009     cmd_parser.o (.rodata.str1.42376189712252671381)
                  2002c364    00000009     cmd_parser.o (.rodata.str1.44420303858919909071)
                  2002c36d    00000009     wlan_cmd.o (.rodata.str1.63396993878169633691)
                  2002c376    00000009     network_terminal.o (.rodata.str1.93765664139082426951)
                  2002c37f    00000001     ti_drivers_config.o (.rodata.SPI_count)
                  2002c380    00000008     ti_drivers_config.o (.rodata.UART2_config)
                  2002c388    00000008     ti_drivers_config.o (.rodata.UDMACC32XX_config)
                  2002c390    00000008     simplelink.a : sl_socket.obj (.rodata.cst4)
                  2002c398    00000008     drivers_cc32xx.a : SPICC32XXDMA.c.obj (.rodata.cst8)
                  2002c3a0    00000008     simplelink.a : driver.obj (.rodata.g_H2NCnysPattern)
                  2002c3a8    00000008                  : driver.obj (.rodata.g_H2NSyncPattern)
                  2002c3b0    00000008     wlan_cmd.o (.rodata.str1.10796042628572158631)
                  2002c3b8    00000008     wlan_cmd.o (.rodata.str1.136730546826776484691)
                  2002c3c0    00000008     str.o (.rodata.str1.148106705210712324061)
                  2002c3c8    00000008     network_terminal.o (.rodata.str1.152172647303324313841)
                  2002c3d0    00000008     str.o (.rodata.str1.178323106865323129671)
                  2002c3d8    00000008     wlan_cmd.o (.rodata.str1.18121291866821517961)
                  2002c3e0    00000008     socket_cmd.o (.rodata.str1.63882499001551330581)
                  2002c3e8    00000008     cmd_parser.o (.rodata.str1.76453599835851495421)
                  2002c3f0    00000008     ti_sysbios_config.o (.rodata.ti_sysbios_knl_Idle_funcList)
                  2002c3f8    00000007     wlan_cmd.o (.rodata.str1.100418078030305543101)
                  2002c3ff    00000007     str.o (.rodata.str1.119964806678133909081)
                  2002c406    00000007     wlan_cmd.o (.rodata.str1.12224104804550480341)
                  2002c40d    00000007     wlan_cmd.o (.rodata.str1.16000689898949893631)
                  2002c414    00000007     cmd_parser.o (.rodata.str1.21662801048252116141)
                  2002c41b    00000007     str.o (.rodata.str1.31158443920096348711)
                  2002c422    00000007     str.o (.rodata.str1.44713306647932377101)
                  2002c429    00000007     cmd_parser.o (.rodata.str1.5512257381075371021)
                  2002c430    00000007     cmd_parser.o (.rodata.str1.72554161523937171851)
                  2002c437    00000007     wlan_cmd.o (.rodata.str1.86346784362782470721)
                  2002c43e    00000006     cmd_parser.o (.rodata.str1.11405459065743215601)
                  2002c444    00000006     uart_term.o (.rodata.str1.114979479918393549251)
                  2002c44a    00000006     network_terminal.o (.rodata.str1.118274227503364115141)
                  2002c450    00000006     cmd_parser.o (.rodata.str1.29797241342332627871)
                  2002c456    00000006     wlan_cmd.o (.rodata.str1.46283826043985191491)
                  2002c45c    00000006     cmd_parser.o (.rodata.str1.5341268997028272891)
                  2002c462    00000006     wlan_cmd.o (.rodata.str1.9406454291004462191)
                  2002c468    00000005     drivers_cc32xx.a : UART2CC32XX.c.obj (.rodata.parityType)
                  2002c46d    00000005     cmd_parser.o (.rodata.str1.103041086220245119861)
                  2002c472    00000005     cmd_parser.o (.rodata.str1.114007730741170795841)
                  2002c477    00000005     str.o (.rodata.str1.127061958419342798781)
                  2002c47c    00000005     cmd_parser.o (.rodata.str1.167714249291908876441)
                  2002c481    00000005     cmd_parser.o (.rodata.str1.44164349561994865031)
                  2002c486    00000005     str.o (.rodata.str1.60977709640830389311)
                  2002c48b    00000005     network_terminal.o (.rodata.str1.89487859532223890671)
                  2002c490    00000005     cmd_parser.o (.rodata.str1.90508976072839479771)
                  2002c495    00000005     cmd_parser.o (.rodata.str1.97251579536842023651)
                  2002c49a    00000005     uart_term.o (.rodata.uERASE_LINE)
                  2002c49f    00000001     ti_drivers_config.o (.rodata.UART2_count)
                  2002c4a0    00000004     ti_sysbios_config.o (.rodata.TimestampP_nativeFormat32)
                  2002c4a4    00000004     ti_sysbios_config.o (.rodata.TimestampP_nativeFormat64)
                  2002c4a8    00000004     simplelink.a : sl_socket.obj (.rodata._SlAcceptCmdCtrl)
                  2002c4ac    00000004                  : device.obj (.rodata._SlDeviceGetCmdCtrl)
                  2002c4b0    00000004                  : device.obj (.rodata._SlDeviceSetCmdCtrl)
                  2002c4b4    00000004                  : netapp.obj (.rodata._SlGetHostByNameCtrl)
                  2002c4b8    00000004                  : netapp.obj (.rodata._SlGetHostByServiceCtrl)
                  2002c4bc    00000004                  : netapp.obj (.rodata._SlGetServiceListeCtrl)
                  2002c4c0    00000004                  : sl_socket.obj (.rodata._SlListenCmdCtrl)
                  2002c4c4    00000004                  : netapp.obj (.rodata._SlNetAppGetCmdCtrl)
                  2002c4c8    00000004                  : netapp.obj (.rodata._SlNetAppSendResponseCmdCtrl)
                  2002c4cc    00000004                  : netapp.obj (.rodata._SlNetAppSendTokenValueCmdCtrl)
                  2002c4d0    00000004                  : netapp.obj (.rodata._SlNetAppSetCmdCtrl)
                  2002c4d4    00000004                  : netapp.obj (.rodata._SlNetAppStartCtrl)
                  2002c4d8    00000004                  : netapp.obj (.rodata._SlNetAppStopCtrl)
                  2002c4dc    00000004                  : netcfg.obj (.rodata._SlNetCfgGetCmdCtrl)
                  2002c4e0    00000004                  : netcfg.obj (.rodata._SlNetCfgSetCmdCtrl)
                  2002c4e4    00000004                  : wlan.obj (.rodata._SlPolicySetCmdCtrl)
                  2002c4e8    00000004                  : wlan.obj (.rodata._SlProfileDelCmdCtrl)
                  2002c4ec    00000004                  : wlan.obj (.rodata._SlProfileGetCmdCtrl)
                  2002c4f0    00000004                  : wlan.obj (.rodata._SlProvisioningCmdCtrl)
                  2002c4f4    00000004                  : sl_socket.obj (.rodata._SlRecvCmdCtrl)
                  2002c4f8    00000004                  : sl_socket.obj (.rodata._SlRecvfomCmdCtrl)
                  2002c4fc    00000004                  : netapp.obj (.rodata._SlRegisterServiceCtrl)
                  2002c500    00000004                  : sl_socket.obj (.rodata._SlSelectCmdCtrl)
                  2002c504    00000004                  : sl_socket.obj (.rodata._SlSendCmdCtrl)
                  2002c508    00000004                  : sl_socket.obj (.rodata._SlSetSockOptCmdCtrl)
                  2002c50c    00000004                  : sl_socket.obj (.rodata._SlSockCloseCmdCtrl)
                  2002c510    00000004                  : sl_socket.obj (.rodata._SlSockSocketCmdCtrl)
                  2002c514    00000004                  : device.obj (.rodata._SlStopCmdCtrl)
                  2002c518    00000004                  : wlan.obj (.rodata._SlWlanCfgGetCmdCtrl)
                  2002c51c    00000004                  : wlan.obj (.rodata._SlWlanCfgSetCmdCtrl)
                  2002c520    00000004                  : wlan.obj (.rodata._SlWlanGetExtNetworkListCtrl)
                  2002c524    00000004                  : wlan.obj (.rodata._SlWlanGetNetworkListCtrl)
                  2002c528    00000004                  : wlan.obj (.rodata._SlWlanRxFilterAddtCmdCtrl)
                  2002c52c    00000004                  : wlan.obj (.rodata._SlWlanSetModeCmdCtrl)
                  2002c530    00000004     drivers_cc32xx.a : UART2CC32XX.c.obj (.rodata.cst4)
                  2002c534    00000004     simplelink.a : netapp.obj (.rodata.cst4)
                  2002c538    00000004                  : wlan.obj (.rodata.cst4)
                  2002c53c    00000004     cmd_parser.o (.rodata.str1.103849114365259473101)
                  2002c540    00000004     transceiver_cmd.o (.rodata.str1.115379931710609542631)
                  2002c544    00000004     wlan_cmd.o (.rodata.str1.135599884243022153381)
                  2002c548    00000004     str.o (.rodata.str1.151438994727824941211)
                  2002c54c    00000004     cmd_parser.o (.rodata.str1.156799889493024974831)
                  2002c550    00000004     cmd_parser.o (.rodata.str1.24001505031451517591)
                  2002c554    00000004     transceiver_cmd.o (.rodata.str1.55164832667349557891)
                  2002c558    00000004     cmd_parser.o (.rodata.str1.62352012514342216981)
                  2002c55c    00000004     str.o (.rodata.str1.67819577369679001421)
                  2002c560    00000004     str.o (.rodata.str1.95159959425744430401)
                  2002c564    00000004     ti_sysbios_config.o (.rodata.ti_sysbios_family_arm_m3_Hwi_swiTaskKeyAddress)
                  2002c568    00000003     transceiver_cmd.o (.rodata.str1.157799001535163571001)
                  2002c56b    00000003     cmd_parser.o (.rodata.str1.16484614269629580271)
                  2002c56e    00000003     cmd_parser.o (.rodata.str1.24121165281180887821)
                  2002c571    00000003     cmd_parser.o (.rodata.str1.39946087114883765421)
                  2002c574    00000003     wlan_cmd.o (.rodata.str1.45081145974638288301)
                  2002c577    00000003     cmd_parser.o (.rodata.str1.47986473629529502501)
                  2002c57a    00000003     cmd_parser.o (.rodata.str1.51400446894002265751)
                  2002c57d    00000003     uart_term.o (.rodata.uRESTORE_CURSOR_STR)
                  2002c580    00000003     uart_term.o (.rodata.uSAVE_CURSOR_STR)
                  2002c583    00000002     cmd_parser.o (.rodata.str1.149755804860361561811)
                  2002c585    00000002     transceiver_cmd.o (.rodata.str1.155147242834231821761)
                  2002c587    00000002     cmd_parser.o (.rodata.str1.155459310282124215611)
                  2002c589    00000002     cmd_parser.o (.rodata.str1.155658903415709465771)
                  2002c58b    00000002     network_terminal.o (.rodata.str1.163287843246223761641)
                  2002c58d    00000002     network_terminal.o (.rodata.str1.32027590142814948621)
                  2002c58f    00000002     network_terminal.o (.rodata.str1.4493203685134624561)
                  2002c591    00000002     socket_cmd.o (.rodata.str1.57698184309261289211)
                  2002c593    00000002     transceiver_cmd.o (.rodata.str1.5892150034239336781)
                  2002c595    00000002     socket_cmd.o (.rodata.str1.6579940680402656191)
                  2002c597    00000002     transceiver_cmd.o (.rodata.str1.68498478301565999601)
                  2002c599    00000002     transceiver_cmd.o (.rodata.str1.80382173343256966441)
                  2002c59b    00000002     transceiver_cmd.o (.rodata.str1.82898927687663685901)
                  2002c59d    00000002     transceiver_cmd.o (.rodata.str1.86435985540414458881)
                  2002c59f    00000001     wlan_cmd.o (.rodata.str1.67792485937231437781)

.ramVecs   0    20030800    0000030c     NOLOAD SECTION
                  20030800    0000030c     ti_sysbios_config.o (.ramVecs)

.cinit     0    20030b0c    00000c3c     
                  20030b0c    00000c17     (.cinit..data.load) [load image, compression = lzss]
                  20031723    00000001     --HOLE-- [fill = 0]
                  20031724    0000000c     (__TI_handler_table)
                  20031730    00000008     (.cinit..bss.load) [load image, compression = zero_init]
                  20031738    00000010     (__TI_cinit_table)

.init_array 
*          0    20004000    00000000     UNINITIALIZED

.priheap   0    2001d858    00008000     UNINITIALIZED
                  2001d858    00008000     --HOLE--

.log_data 
*          0    90000000    00000000     COPY SECTION

.log_ptr   0    94000008    00000000     COPY SECTION

__llvm_prf_cnts 
*          0    20004000    00000000     UNINITIALIZED

__llvm_prf_bits 
*          0    20004000    00000000     UNINITIALIZED

MODULE SUMMARY

       Module                         code     ro data   rw data
       ------                         ----     -------   -------
    .\
       wlan_cmd.o                     9536     3911      36     
       cmd_parser.o                   8752     3413      0      
       str.o                          24       8320      3662   
       network_terminal.o             3446     2663      2632   
       transceiver_cmd.o              3592     4224      0      
       socket_cmd.o                   3802     1511      0      
       radio_tool.o                   996      0         3028   
       netapp_cmd.o                   1454     1168      0      
       uart_term.o                    928      47        70     
       main_tirtos.o                  88       0         0      
    +--+------------------------------+--------+---------+---------+
       Total:                         32618    25257     9428   
                                                                
    .\syscfg\
       ti_sysbios_config.o            10092    1021      3144   
       ti_drivers_config.o            34       315       2260   
       ti_drivers_net_wifi_config.o   0        52        0      
    +--+------------------------------+--------+---------+---------+
       Total:                         10126    1388      5404   
                                                                
    C:/ti/simplelink_cc32xx_sdk_7_10_00_13/kernel/tirtos7/packages/ti/sysbios/lib/ticlang/m4/sysbios.a
       Hwi_asm_gcc.s.obj              276      0         0      
       Hwi_asm_switch_gcc.s.obj       102      0         0      
       TaskSupport_asm_gcc.s.obj      56       0         0      
       boot_cortex_m.c.obj            36       0         0      
    +--+------------------------------+--------+---------+---------+
       Total:                         470      0         0      
                                                                
    C:/ti/simplelink_cc32xx_sdk_7_10_00_13/source/ti/devices/cc32xx/driverlib/ticlang/Release/driverlib.a
       prcm.obj                       2762     168       0      
       spi.obj                        1110     24        0      
       pin.obj                        748      256       0      
       udma.obj                       818      0         0      
       uart.obj                       490      0         0      
       gpio.obj                       388      0         0      
       flash.obj                      92       0         0      
       cpu.obj                        52       0         0      
       utils.obj                      8        0         0      
    +--+------------------------------+--------+---------+---------+
       Total:                         6468     448       0      
                                                                
    C:/ti/simplelink_cc32xx_sdk_7_10_00_13/source/ti/drivers/lib/ticlang/m4/drivers_cc32xx.a
       PowerCC32XX.c.obj              2068     0         664    
       UART2CC32XX.c.obj              2266     11        0      
       SPICC32XXDMA.c.obj             1802     68        0      
       UART2.c.obj                    1396     36        0      
       GPIOCC32XX.c.obj               988      73        26     
       RingBuf.c.obj                  272      0         0      
       UDMACC32XX.c.obj               242      0         28     
       SPI.c.obj                      156      32        1      
       PowerCC32XX_ticlang.asm.obj    150      0         0      
       List.c.obj                     76       0         0      
       GPIO.c.obj                     28       0         0      
    +--+------------------------------+--------+---------+---------+
       Total:                         9444     220       719    
                                                                
    C:/ti/simplelink_cc32xx_sdk_7_10_00_13/source/ti/drivers/net/wifi/ticlang/rtos/simplelink.a
       driver.obj                     15836    240       1077   
       sl_socket.obj                  5512     44        12     
       netapp.obj                     4456     44        16     
       wlan.obj                       4062     44        0      
       device.obj                     2278     44        12     
       cc_pal.obj                     1252     0         4      
       eventreg.obj                   828      0         72     
       wlanconfig.obj                 874      0         0      
       netcfg.obj                     388      8         0      
       spawn.obj                      282      0         40     
       netutil.obj                    192      0         0      
       flowcont.obj                   42       0         0      
    +--+------------------------------+--------+---------+---------+
       Total:                         36002    424       1233   
                                                                
    C:\ti\ccs1281\ccs\tools\compiler\ti-cgt-armllvm_3.2.2.LTS\lib\armv7em-ti-none-eabi/c/libc.a
       _printfi.c.obj                 4540     34        0      
       strcmp_t2.S.obj                732      0         0      
       strtol.c.obj                   312      0         0      
       strtoul.c.obj                  284      0         0      
       aeabi_ctype.S.obj              0        257       0      
       s_scalbn.c.obj                 196      0         0      
       vsnprintf.c.obj                132      0         0      
       copy_decompress_lzss.c.obj     112      0         0      
       _ltoa.c.obj                    86       0         0      
       s_frexp.c.obj                  84       0         0      
       strtok.c.obj                   64       0         4      
       atoi.c.obj                     64       0         0      
       atol.c.obj                     64       0         0      
       autoinit.c.obj                 56       0         0      
       strstr.c.obj                   44       0         0      
       _lock.c.obj                    26       0         8      
       strspn.c.obj                   34       0         0      
       strcspn.c.obj                  32       0         0      
       memccpy.c.obj                  30       0         0      
       args_main.c.obj                20       0         0      
       memcpy_t2.S.obj                18       0         0      
       copy_zero_init.c.obj           16       0         0      
       wcslen.c.obj                   16       0         0      
       copy_decompress_none.c.obj     14       0         0      
       memset_t2.S.obj                14       0         0      
       aeabi_portable.c.obj           8        0         4      
    +--+------------------------------+--------+---------+---------+
       Total:                         6998     291       16     
                                                                
    C:\ti\ccs1281\ccs\tools\compiler\ti-cgt-armllvm_3.2.2.LTS\lib\clang/15.0.7/lib/armv7em-ti-none-eabi/libclang_rt.builtins.a
       adddf3.S.obj                   438      0         0      
       divdf3.S.obj                   310      0         0      
       muldf3.S.obj                   252      0         0      
       addsf3.S.obj                   250      0         0      
       comparedf2.c.obj               220      0         0      
       udivmoddi4.S.obj               176      0         0      
       divsf3.S.obj                   146      0         0      
       mulsf3.S.obj                   122      0         0      
       aeabi_dcmp.S.obj               98       0         0      
       fixdfsi.S.obj                  72       0         0      
       fixsfsi.S.obj                  56       0         0      
       floatsidf.S.obj                46       0         0      
       floatunsisf.S.obj              36       0         0      
       aeabi_uldivmod.S.obj           20       0         0      
       aeabi_memset.S.obj             18       0         0      
       aeabi_memcpy.S.obj             4        0         0      
       aeabi_div0.c.obj               2        0         0      
    +--+------------------------------+--------+---------+---------+
       Total:                         2266     0         0      
                                                                
       Stack:                         0        0         1024   
       Linker Generated:              0        3131      0      
    +--+------------------------------+--------+---------+---------+
       Grand Total:                   104392   31159     17824  


LINKER GENERATED COPY TABLES

__TI_cinit_table @ 20031738 records: 2, size/record: 8, table size: 16
	.data: load addr=20030b0c, load size=00000c17 bytes, run addr=2002f130, run size=00001565 bytes, compression=lzss
	.bss: load addr=20031730, load size=00000008 bytes, run addr=2002c800, run size=0000292f bytes, compression=zero_init


LINKER GENERATED HANDLER TABLE

__TI_handler_table @ 20031724 records: 3, size/record: 4, table size: 12
	index: 0, handler: __TI_zero_init
	index: 1, handler: __TI_decompress_lzss
	index: 2, handler: __TI_decompress_none


GLOBAL SYMBOLS: SORTED ALPHABETICALLY BY Name 

address   name                                                            
-------   ----                                                            
200303f0  APTransitionDisableDetailsStr                                   
200302d7  APTransitionDisableUsageStr                                     
200300b0  APTransitionDisablecmdStr                                       
200303f4  APTransitionEnableDetailsStr                                    
200302e1  APTransitionEnableUsageStr                                      
20030100  APTransitionEnablecmdStr                                        
200302a0  AddProfileStr                                                   
200303f8  AntSelectionDisableDetailsStr                                   
200302eb  AntSelectionDisableUsageStr                                     
200300c4  AntSelectionDisablecmdStr                                       
200303fc  AntSelectionEnableDetailsStr                                    
20030240  AntSelectionEnableUsageStr                                      
20030400  AntSelectionEnable_Note_optionDetailsStr                        
20030113  AntSelectionEnablecmdStr                                        
2002fa40  BIOS_Module_state                                               
2001a821  BIOS_atExitFunc                                                 
2001cdc1  BIOS_exitFunc                                                   
2002ef78  BIOS_heapMemObject                                              
2001a2cd  BIOS_init                                                       
2001d499  BIOS_linkedWithIncorrectBootLibrary                             
20004a77  BIOS_nullFunc                                                   
2001c179  BIOS_registerRTSLock                                            
2001c471  BIOS_removeRTSLock                                              
2002efd0  BIOS_rtsGate                                                    
2001cb55  BIOS_rtsLock                                                    
2001cdd9  BIOS_rtsUnlock                                                  
2001d4a5  BIOS_start                                                      
20019ef9  BIOS_startFunc                                                  
20030380  BSSID_str                                                       
2001cef9  Board_init                                                      
20006f13  Board_initHook                                                  
2001d001  CPUcpsid                                                        
2001d015  CPUcpsie                                                        
2001d4b1  CPUwfi                                                          
2001a865  CheckSubFrameType                                               
2001d4bd  ClearTerm                                                       
2001d281  ClockP_getCpuFreq                                               
2001d789  ClockP_getSystemTickPeriod                                      
2001d4c9  ClockP_getSystemTicks                                           
20030404  CoexDisableDetailsStr                                           
200302f5  CoexDisableUsageStr                                             
2003024c  CoexDisablecmdStr                                               
20030408  CoexEnableDetailsStr                                            
20030258  CoexEnableUsageStr                                              
2003040c  CoexEnable_Note_optionDetailsStr                                
200302ab  CoexEnablecmdStr                                                
20030410  ConnectedStationsDetailsStr                                     
20030126  ConnectedStationsStr                                            
20030264  ConnectedStationsUsageStr                                       
20030414  CountryCodeDetailsStr                                           
20030418  CountryCode_Note_optionDetailsStr                               
2003041c  CountryCode_g_optionDetailsStr                                  
2002ff11  CtrlFrames                                                      
2002ffe8  CtrlFrames_str                                                  
20030386  DESTINATION_MAC_str                                             
200303a4  D_IP_str                                                        
2002ff25  DataFrames                                                      
2002fd18  DataFrames_str                                                  
2002f0fc  DeviceCB                                                        
2000dea1  DisplayAppBanner                                                
200301c7  FRAME_SUBTYPE_str                                               
200302b6  FRAME_TYPE_str                                                  
20018aa5  FlashDisable                                                    
20019dc1  FreeConnectCmd                                                  
2001d1b9  FreePingCmd                                                     
2001ac61  FreeProfileCmd                                                  
2001d1cb  FreeRecvCmd                                                     
2001d1dd  FreeSendCmd                                                     
2001c9ed  FreeStartApCmd                                                  
2001ca0b  FreemDNSAdvertiseCmd                                            
2001a8a9  GPIODirModeSet                                                  
2001d1ef  GPIOIntClear                                                    
2001cc89  GPIOIntDisable                                                  
2001cdf1  GPIOIntEnable                                                   
2001be59  GPIOIntStatus                                                   
20014e8d  GPIOIntTypeSet                                                  
2001c71d  GPIOPinWrite                                                    
2001cb71  GPIO_clearInt                                                   
2002c050  GPIO_config                                                     
2001a8ed  GPIO_disableInt                                                 
2001a931  GPIO_enableInt                                                  
200198c1  GPIO_hwiIntFxn                                                  
20016065  GPIO_init                                                       
2002b4db  GPIO_pinUpperBound                                              
2001cb8d  GPIO_setCallback                                                
2000fb51  GPIO_setConfig                                                  
20019f45  GPIO_setInterruptConfig                                         
200187a5  GPIO_write                                                      
2000fdd1  GetCmd                                                          
200302c1  GetProfileStr                                                   
2002efa4  GlobalLockObj                                                   
00008000  HEAPSIZE                                                        
2001d291  HwiP_Params_init                                                
2001c80d  HwiP_clearInterrupt                                             
2001b0e1  HwiP_construct                                                  
200194d1  HwiP_create                                                     
2001d4d5  HwiP_delete                                                     
20015b2d  HwiP_destruct                                                   
2001d4e1  HwiP_disable                                                    
2001d82b  HwiP_disableInterrupt                                           
2001d82f  HwiP_enableInterrupt                                            
2001cf0f  HwiP_interruptsEnabled                                          
2001d78f  HwiP_restore                                                    
UNDEFED   ITM_flush                                                       
UNDEFED   ITM_restore                                                     
2001b49d  InitTerm                                                        
2001c495  List_put                                                        
2001c1a1  List_remove                                                     
2002feb4  MangmentFrames_str                                              
2001c4b9  Message                                                         
2002ff19  MgmtFrames                                                      
2002f108  Msg                                                             
2001b429  Mutex_create_handle                                             
2001d381  NwpMaskInterrupt                                                
20012ad7  NwpPowerOff                                                     
2001be87  NwpPowerOn                                                      
20018231  NwpRegisterInterruptHandler                                     
2001d38f  NwpUnMaskInterrupt                                              
20019911  NwpWaitForShutDownInd                                           
200303a9  OPEN_str                                                        
200269be  OpcodeTranslateTable                                            
20030358  PATTERN_str                                                     
20006647  PRCMCC3200MCUInit                                               
2001ccd7  PRCMHIBRegRead                                                  
2001ccf1  PRCMHIBRegWrite                                                 
2001708f  PRCMHibernateWakeUpGPIOSelect                                   
20018b01  PRCMHibernateWakeupSourceDisable                                
20019961  PRCMHibernateWakeupSourceEnable                                 
2001a315  PRCMIntEnable                                                   
20019425  PRCMLPDSEnter                                                   
2001a795  PRCMLPDSEnterKeepDebugIf                                        
2001bbb7  PRCMLPDSIntervalSet                                             
20019f91  PRCMLPDSRestoreInfoSet                                          
2001c0a5  PRCMLPDSWakeUpGPIOSelect                                        
2001d51d  PRCMLPDSWakeupCauseGet                                          
2001cd0b  PRCMLPDSWakeupSourceDisable                                     
2001c4dd  PRCMLPDSWakeupSourceEnable                                      
2001c0cf  PRCMPeripheralClkDisable                                        
20018e3d  PRCMPeripheralClkEnable                                         
20013b81  PRCMPeripheralClockGet                                          
20017e89  PRCMPeripheralReset                                             
2001a35d  PRCMPeripheralStatusGet                                         
2001c1c9  PRCMSRAMRetentionEnable                                         
2001d73f  PRCMSleepEnter                                                  
2001bbe7  PRCMSlowClkCtrFastGet                                           
200162a5  PRCMSysResetCauseGet                                            
2001790d  ParseCmd                                                        
20008a7d  ParseConnectCmd                                                 
2001229d  ParseCountycodeCmd                                              
20005ba1  ParseCreateFilterCmd                                            
2000ef35  ParseEnableWoWLANCmd                                            
2000cda5  ParsePingCmd                                                    
2000a0a1  ParseProfileCmd                                                 
200098a5  ParseRecvCmd                                                    
20012bb9  ParseScanCmd                                                    
2000a5bd  ParseSendCmd                                                    
2000d64d  ParseSetPolicyCmd                                               
200149a5  ParseSoftRoamingEnableCmd                                       
2000878d  ParseStartApCmd                                                 
200130e5  ParseTriggeredRoamingEnableCmd                                  
20016775  ParsegetProfileCmd                                              
2000cbdd  ParsemDNSAdvertiseCmd                                           
2000f4c5  ParsemDNSQueryCmd                                               
2001a3a5  PinConfigGet                                                    
2001551d  PinConfigSet                                                    
2001b817  PinDirModeGet                                                   
2001b029  PinDirModeSet                                                   
2001b775  PinLock                                                         
20017979  PinLockLevelSet                                                 
2001b84b  PinModeGet                                                      
2001aca3  PinModeSet                                                      
2001cd25  PinToPadGet                                                     
2001ca29  PinTypeSPI                                                      
2001ca47  PinTypeUART                                                     
2001c73f  PinUnlock                                                       
20028de0  PowerCC32XX_config                                              
200164d9  PowerCC32XX_configureWakeup                                     
2002eb78  PowerCC32XX_contextSave                                         
20015b31  PowerCC32XX_enterLPDS                                           
2001c1f1  PowerCC32XX_getParkState                                        
2001d2d1  PowerCC32XX_getWakeup                                           
2001d529  PowerCC32XX_initPolicy                                          
2002f2d4  PowerCC32XX_module                                              
2001b87f  PowerCC32XX_parkPin                                             
2001c82d  PowerCC32XX_reset                                               
2001c501  PowerCC32XX_restoreParkState                                    
2001c525  PowerCC32XX_restoreParkedPin                                    
20015b75  PowerCC32XX_resumeLPDS                                          
20019525  PowerCC32XX_setParkState                                        
200113ad  PowerCC32XX_sleepPolicy                                         
2001d051  Power_disablePolicy                                             
2001d2e1  Power_enablePolicy                                              
2001d535  Power_getConstraintMask                                         
2001d065  Power_getTransitionLatency                                      
2001d079  Power_idleFunc                                                  
20016be1  Power_init                                                      
2001c549  Power_registerNotify                                            
2001a975  Power_releaseConstraint                                         
20019579  Power_releaseDependency                                         
2001b50d  Power_setConstraint                                             
200179e5  Power_setDependency                                             
20006f15  Power_sleep                                                     
2001c84d  Power_unregisterNotify                                          
200195cd  PrintIPAddress                                                  
20018805  ReplaceLine                                                     
20017a51  Report                                                          
2001d2f1  RingBuf_construct                                               
2001beb5  RingBuf_getConsume                                              
2001d833  RingBuf_getCount                                                
2001c761  RingBuf_getPointer                                              
2001a7db  RingBuf_put                                                     
2001b545  RingBuf_putAdvance                                              
2001bee3  RingBuf_putPointer                                              
2002f12e  RxIrqCnt                                                        
2000cf61  RxTask                                                          
2002d09c  Rx_frame                                                        
2003038c  SOURCE_MAC_str                                                  
20014a59  SPICC32XXDMA_close                                              
2001d7e9  SPICC32XXDMA_control                                            
2002bbc4  SPICC32XXDMA_fxnTable                                           
2001d837  SPICC32XXDMA_init                                               
20010049  SPICC32XXDMA_open                                               
2000db59  SPICC32XXDMA_transfer                                           
2001336d  SPICC32XXDMA_transferCancel                                     
2001cf25  SPICSDisable                                                    
2001cf3b  SPICSEnable                                                     
20014b0d  SPIConfigSetExpClk                                              
2001c449  SPIDataGet                                                      
2001c56d  SPIDataPut                                                      
2001cf51  SPIDisable                                                      
2001cd3f  SPIDmaDisable                                                   
2001ce09  SPIDmaEnable                                                    
2001cf67  SPIEnable                                                       
2001cd59  SPIFIFODisable                                                  
2001ce21  SPIFIFOEnable                                                   
2001b7ab  SPIFIFOLevelSet                                                 
20018619  SPIIntClear                                                     
20017abd  SPIIntDisable                                                   
20017ef3  SPIIntEnable                                                    
20015ead  SPIIntStatus                                                    
2001c219  SPIReset                                                        
2001c783  SPIWordCountSet                                                 
2001d541  SPI_Params_init                                                 
2001d7ef  SPI_close                                                       
2002bbdc  SPI_config                                                      
2002c37f  SPI_count                                                       
2002b4fc  SPI_defaultParams                                               
2001a9b9  SPI_init                                                        
2001ad69  SPI_open                                                        
2001d7f5  SPI_transfer                                                    
200303ae  S_IP_str                                                        
2001c86d  SemaphoreP_constructBinary                                      
2001c591  SemaphoreP_createBinary                                         
2001d54d  SemaphoreP_delete                                               
2001d83b  SemaphoreP_destruct                                             
2001d68f  SemaphoreP_pend                                                 
2001d83f  SemaphoreP_post                                                 
20013441  Semaphore_pend_handle                                           
20030270  SetCountryCodeStr                                               
2002ff35  SetCountryCodeUsageStr                                          
2001910d  SimpleLinkFatalErrorEventHandler                                
2001d08d  SimpleLinkGeneralEventHandler                                   
2000878b  SimpleLinkHttpServerEventHandler                                
20010525  SimpleLinkNetAppEventHandler                                    
200098a3  SimpleLinkNetAppRequestEventHandler                             
2000aaa7  SimpleLinkNetAppRequestMemFreeEventHandler                      
20018295  SimpleLinkPingReport                                            
2000c29f  SimpleLinkSockEventHandler                                      
2002a4d4  SimpleLinkWifiCC32XX_config                                     
2000aaa9  SimpleLinkWlanEventHandler                                      
20030420  SoftRoamingDisableDetailsStr                                    
200302ff  SoftRoamingDisableUsageStr                                      
20030139  SoftRoamingDisablecmdStr                                        
20030424  SoftRoamingEnableDetailsStr                                     
20030028  SoftRoamingEnableUsageStr                                       
20030428  SoftRoamingEnable_Note_optionDetailsStr                         
2003042c  SoftRoamingEnable_r_optionDetailsStr                            
20030172  SoftRoamingEnablecmdStr                                         
2000be95  TCPClient                                                       
2000931d  TCPServer                                                       
2001d26d  TI_memcpy_small                                                 
2001d47d  TI_memset_small                                                 
2003007c  Template_Hdr                                                    
2001d747  TimerGetCurrentTimestamp                                        
2002c4a0  TimestampP_nativeFormat32                                       
2002c4a4  TimestampP_nativeFormat64                                       
20030430  TriggeredRoamingDisableDetailsStr                               
20030309  TriggeredRoamingDisableUsageStr                                 
2003014c  TriggeredRoamingDisablecmdStr                                   
20030434  TriggeredRoamingEnableDetailsStr                                
2002ffc6  TriggeredRoamingEnableUsageStr                                  
20030184  TriggeredRoamingEnablecmdStr                                    
20030438  TriggeredRoaming_r_optionDetailsStr                             
20005451  TxTask                                                          
2002d678  Tx_frame                                                        
2003043c  Txtask_m10_optionDetailsStr                                     
20030440  Txtask_m11_optionDetailsStr                                     
20030444  Txtask_m12_optionDetailsStr                                     
20030448  Txtask_m13_optionDetailsStr                                     
2003044c  Txtask_m14_optionDetailsStr                                     
20030450  Txtask_m15_optionDetailsStr                                     
20030454  Txtask_m16_optionDetailsStr                                     
20030458  Txtask_m17_optionDetailsStr                                     
2003045c  Txtask_m18_optionDetailsStr                                     
20030460  Txtask_m19_optionDetailsStr                                     
20030464  Txtask_m1_optionDetailsStr                                      
20030468  Txtask_m20_optionDetailsStr                                     
2003046c  Txtask_m21_optionDetailsStr                                     
20030470  Txtask_m2_optionDetailsStr                                      
20030474  Txtask_m3_optionDetailsStr                                      
20030478  Txtask_m4_optionDetailsStr                                      
2003047c  Txtask_m5_optionDetailsStr                                      
20030480  Txtask_m6_optionDetailsStr                                      
20030484  Txtask_m7_optionDetailsStr                                      
20030488  Txtask_m8_optionDetailsStr                                      
2003048c  Txtask_m9_optionDetailsStr                                      
20030490  Txtask_m_optionDetailsStr                                       
20030494  Txtask_p0_optionDetailsStr                                      
20030498  Txtask_p1_optionDetailsStr                                      
2003049c  Txtask_p2_optionDetailsStr                                      
200304a0  Txtask_p3_optionDetailsStr                                      
200304a4  Txtask_p4_optionDetailsStr                                      
200304a8  Txtask_p_optionDetailsStr                                       
200304ac  Txtask_tone_optionDetailsStr                                    
200304b0  Txtask_txp_optionDetailsStr                                     
2001c5b5  UART2Support_disableRx                                          
2001d565  UART2Support_disableTx                                          
20013859  UART2Support_dmaStartRx                                         
20014555  UART2Support_dmaStartTx                                         
2001a159  UART2Support_dmaStopRx                                          
20018865  UART2Support_dmaStopTx                                          
2001babd  UART2Support_enableInts                                         
2001d571  UART2Support_enableRx                                           
2001d57d  UART2Support_enableTx                                           
2001d7fb  UART2Support_powerRelConstraint                                 
2001d801  UART2Support_powerSetConstraint                                 
2001c7a5  UART2Support_sendData                                           
2001d301  UART2Support_txDone                                             
2001d589  UART2_Params_init                                               
20012829  UART2_close                                                     
2002c380  UART2_config                                                    
2002c49f  UART2_count                                                     
2002b244  UART2_defaultParams                                             
2000ca11  UART2_open                                                      
2001c7c7  UART2_read                                                      
2001a3ed  UART2_readFull                                                  
2000c83d  UART2_readTimeout                                               
2001b8b3  UART2_rxDisable                                                 
2001b57d  UART2_rxEnable                                                  
2001d3ab  UART2_write                                                     
2001ca65  UART2_writeTimeout                                              
2000ec57  UART2_writeTimeoutBlocking                                      
20010c21  UART2_writeTimeoutNonblocking                                   
2001d311  UARTBusy                                                        
2001b7e1  UARTCharPutNonBlocking                                          
2001cf7d  UARTCharsAvail                                                  
20017103  UARTConfigSetExpClk                                             
2001cf93  UARTDMADisable                                                  
2001d0a1  UARTDMAEnable                                                   
2001bf11  UARTDisable                                                     
2001ca83  UARTEnable                                                      
2001cfa9  UARTFIFOLevelSet                                                
2001cd73  UARTFlowControlSet                                              
2001d321  UARTIntClear                                                    
2001cfbf  UARTIntDisable                                                  
2001d0b5  UARTIntEnable                                                   
2001c0f9  UARTIntStatus                                                   
2001d331  UARTRxErrorGet                                                  
2001b5b5  UDMACC32XX_close                                                
2002c388  UDMACC32XX_config                                               
2001b11d  UDMACC32XX_init                                                 
20017b29  UDMACC32XX_open                                                 
2000af61  UDPClient                                                       
2000a341  UDPServer                                                       
2001d74f  UtilsDelay                                                      
2002fa3d  V_optionStr                                                     
200304b4  WEP_str                                                         
20030313  WPA2_PLUS_str                                                   
200303b3  WPA2_str                                                        
200303b8  WPA3_str                                                        
2003033b  WPAWPA2_str                                                     
200304b8  WPA_str                                                         
200304bc  WPS_str                                                         
20027b74  _SlActionLookupTable                                            
2000fc91  _SlDeviceEventHandler                                           
20018e97  _SlDeviceFatalErrorEvtHdlr                                      
20018ef1  _SlDeviceGeneralEvtHdlr                                         
200115bd  _SlDeviceHandleAsync_InitComplete                               
200158cb  _SlDeviceHandleAsync_Stop                                       
200174a5  _SlDeviceHandleResetRequestInternally                           
2001d699  _SlDeviceResetRequestInitCompletedCB                            
20019165  _SlDrvBasicCmd                                                  
2000f61d  _SlDrvCmdOp                                                     
20017b95  _SlDrvCmdSend_noLock                                            
200199b1  _SlDrvCmdSend_noWait                                            
20008495  _SlDrvDataReadOp                                                
200095e5  _SlDrvDataWriteOp                                               
2001d0c9  _SlDrvDispatchHttpServerEvents                                  
2001d0dd  _SlDrvDispatchNetAppRequestEvents                               
2000e675  _SlDrvDriverCBDeinit                                            
20009dff  _SlDrvDriverCBInit                                              
2001247b  _SlDrvDriverIsApiAllowed                                        
20018f4b  _SlDrvGlobalObjUnLock                                           
20013925  _SlDrvHandleFatalError                                          
2001b159  _SlDrvIsApiInProgress                                           
2001d0f1  _SlDrvIsSpawnOwnGlobalLock                                      
20013dd1  _SlDrvIsTimeoutExpired                                          
2001ce39  _SlDrvMemZero                                                   
2000e1dd  _SlDrvMsgReadSpawnCtx                                           
2000edcb  _SlDrvObjGlobalLockWaitForever                                  
2001baef  _SlDrvObjLockWaitForever                                        
2001bb21  _SlDrvObjUnLock                                                 
20014d29  _SlDrvProtectAsyncRespSetting                                   
2001b195  _SlDrvProtectionObjLockWaitForever                              
2001b1d1  _SlDrvProtectionObjUnLock                                       
2000bc7d  _SlDrvReleaseAllActivePendingPoolObj                            
200072f9  _SlDrvReleasePoolObj                                            
2001d201  _SlDrvResetCmdExt                                               
20016c59  _SlDrvRxIrqHandler                                              
2001bc17  _SlDrvStartMeasureTimeout                                       
2001bb53  _SlDrvSyncObjSignal                                             
2001ada9  _SlDrvSyncObjWaitForever                                        
200188c5  _SlDrvSyncObjWaitTimeout                                        
20010655  _SlDrvWaitForInternalAsyncEvent                                 
20007a59  _SlDrvWaitForPoolObj                                            
20019675  _SlFindAndReleasePendingCmd                                     
2001c123  _SlFlowContSet                                                  
2001cbc5  _SlInternalIsItSpawnThread                                      
20017517  _SlInternalSpawn                                                
2001ace5  _SlInternalSpawnTaskEntry                                       
2001a1a3  _SlInternalSpawnWaitForEvent                                    
20018bb9  _SlIsEventRegistered                                            
2000b835  _SlNetAppEventHandler                                           
20018fa5  _SlNetAppEvtHdlr                                                
200136bd  _SlNetAppHandleAsync_DnsGetHostByName                           
200109db  _SlNetAppHandleAsync_DnsGetHostByService                        
20012d79  _SlNetAppHandleAsync_NetAppReceive                              
200139ef  _SlNetAppHandleAsync_PingResponse                               
2001867b  _SlNetAppHttpServerHdlr                                         
200116c3  _SlNetAppMDNSRegisterUnregisterService                          
200186dd  _SlNetAppRequestHdlr                                            
20018fff  _SlNetAppRequestMemFree                                         
20014261  _SlNetAppSendResponse                                           
2002c4c8  _SlNetAppSendResponseCmdCtrl                                    
20016975  _SlNetAppSendTokenValue                                         
2002c4cc  _SlNetAppSendTokenValueCmdCtrl                                  
200140e1  _SlNetUtilHandleAsync_Cmd                                       
2002c4f0  _SlProvisioningCmdCtrl                                          
20019059  _SlSockEvtHdlr                                                  
20015661  _SlSocketHandleAsync_Accept                                     
20014f39  _SlSocketHandleAsync_Close                                      
20014fe5  _SlSocketHandleAsync_Connect                                    
2000613d  _SlSocketHandleAsync_Select                                     
20017177  _SlSpawnMsgListGetCount                                         
2000e7ef  _SlSpawnMsgListInsert                                           
2001460d  _SlSpawnMsgListProcess                                          
200190b3  _SlWlanEvtHdlr                                                  
20004000  __STACK_END                                                     
00000400  __STACK_SIZE                                                    
00000000  __TI_ATRegion0_region_sz                                        
00000000  __TI_ATRegion0_src_addr                                         
00000000  __TI_ATRegion0_trg_addr                                         
00000000  __TI_ATRegion1_region_sz                                        
00000000  __TI_ATRegion1_src_addr                                         
00000000  __TI_ATRegion1_trg_addr                                         
00000000  __TI_ATRegion2_region_sz                                        
00000000  __TI_ATRegion2_src_addr                                         
00000000  __TI_ATRegion2_trg_addr                                         
20031738  __TI_CINIT_Base                                                 
20031748  __TI_CINIT_Limit                                                
20031748  __TI_CINIT_Warm                                                 
20031724  __TI_Handler_Table_Base                                         
20031730  __TI_Handler_Table_Limit                                        
2001b73d  __TI_auto_init_nobinit_nopinit                                  
200177bd  __TI_decompress_lzss                                            
2001d48b  __TI_decompress_none                                            
2001947b  __TI_ltoa                                                       
ffffffff  __TI_pprof_out_hndl                                             
20004a79  __TI_printfi                                                    
ffffffff  __TI_prof_data_size                                             
ffffffff  __TI_prof_data_start                                            
20030b0c  __TI_static_base__                                              
2001d371  __TI_zero_init                                                  
2000d49f  __adddf3                                                        
20011dc9  __addsf3                                                        
20025b00  __aeabi_ctype_table_                                            
20025b00  __aeabi_ctype_table_C                                           
2001a435  __aeabi_d2iz                                                    
2000d49f  __aeabi_dadd                                                    
20018741  __aeabi_dcmpeq                                                  
2001877d  __aeabi_dcmpge                                                  
20018791  __aeabi_dcmpgt                                                  
20018769  __aeabi_dcmple                                                  
20018755  __aeabi_dcmplt                                                  
200102b9  __aeabi_ddiv                                                    
20011ad1  __aeabi_dmul                                                    
2000d495  __aeabi_dsub                                                    
200304c0  __aeabi_errno                                                   
2001d759  __aeabi_errno_addr                                              
2001b5ed  __aeabi_f2iz                                                    
20011dc9  __aeabi_fadd                                                    
20015f41  __aeabi_fdiv                                                    
20016b65  __aeabi_fmul                                                    
20011dc5  __aeabi_fsub                                                    
2001bf41  __aeabi_i2d                                                     
2000ca0f  __aeabi_ldiv0                                                   
2001d761  __aeabi_memclr                                                  
2001d761  __aeabi_memclr4                                                 
2001d761  __aeabi_memclr8                                                 
2001d845  __aeabi_memcpy                                                  
2001d845  __aeabi_memcpy4                                                 
2001d845  __aeabi_memcpy8                                                 
2001d6a5  __aeabi_memset                                                  
2001d6a5  __aeabi_memset4                                                 
2001d6a5  __aeabi_memset8                                                 
2001c5d9  __aeabi_ui2f                                                    
2001d105  __aeabi_uldivmod                                                
ffffffff  __binit__                                                       
UNDEFED   __c_args__                                                      
2001789d  __cmpdf2                                                        
200102b9  __divdf3                                                        
20015f41  __divsf3                                                        
2001789d  __eqdf2                                                         
2001a435  __fixdfsi                                                       
2001b5ed  __fixsfsi                                                       
2001bf41  __floatsidf                                                     
2001c5d9  __floatunsisf                                                   
2001782d  __gedf2                                                         
2001782d  __gtdf2                                                         
2001789d  __ledf2                                                         
2001789d  __ltdf2                                                         
UNDEFED   __mpu_init                                                      
20011ad1  __muldf3                                                        
20016b65  __mulsf3                                                        
2001789d  __nedf2                                                         
20025858  __primary_heap_end__                                            
2001d858  __primary_heap_start__                                          
20003c00  __stack                                                         
20004000  __start___llvm_prf_bits                                         
20004000  __start___llvm_prf_cnts                                         
20004000  __stop___llvm_prf_bits                                          
20004000  __stop___llvm_prf_cnts                                          
2000d495  __subdf3                                                        
20011dc5  __subsf3                                                        
20014ddd  __udivmoddi4                                                    
2001d119  _args_main                                                      
2001c6f9  _c_int00                                                        
200304c4  _lock                                                           
2000d64b  _nop                                                            
200167f5  _pthread_abstime2ticks                                          
2001b91d  _pthread_cleanupFxn                                             
20016cd1  _pthread_removeThreadKeys                                       
2001d595  _register_lock                                                  
2001d5a1  _register_unlock                                                
2001d849  _system_post_cinit                                              
2000f4c3  _system_pre_init                                                
200304c8  _unlock                                                         
2002fd15  a_optionStr                                                     
2002f73c  addProfileUsageStr                                              
200304cc  ap_start_DetailsStr                                             
2002f538  ap_start_UsageStr                                               
200304d0  ap_start_channel_optionDetailsStr                               
200304d4  ap_start_h_optionDetailsStr                                     
200304d8  ap_start_l_optionDetailsStr                                     
200301d5  ap_start_str                                                    
200304dc  ap_start_txp_optionDetailsStr                                   
200304e0  ap_stop_DetailsStr                                              
2003027c  ap_stop_UsageStr                                                
200301ff  ap_stop_str                                                     
2002c800  app_CB                                                          
2002ef04  app_CH                                                          
2001ade9  atoi                                                            
2001ae29  atol                                                            
ffffffff  binit                                                           
2002ff59  c_optionStr                                                     
2001c241  calloc                                                          
200304e4  cca_th1_optionDetailStr                                         
200304e8  cca_th2_optionDetailStr                                         
200304ec  cca_th3_optionDetailStr                                         
200304f0  cca_th4_optionDetailStr                                         
200304f4  cca_th5_optionDetailStr                                         
200304f8  cca_th6_optionDetailStr                                         
200304fc  cca_th_optionDetailStr                                          
20030500  clearDetailsStr                                                 
20030392  clearStr                                                        
20013515  clock_gettime                                                   
2001bc79  clock_settime                                                   
2001b20d  cmdAPTransitionDisablecallback                                  
2001b249  cmdAPTransitionEnablecallback                                   
20012e55  cmdAddProfilecallback                                           
20016875  cmdAntSelectionDisablecallback                                  
20015bc9  cmdAntSelectionEnablecallback                                   
2001d6af  cmdClearcallback                                                
200168f5  cmdCoexDisablecallback                                          
20015c5d  cmdCoexEnablecallback                                           
200114b5  cmdConnectedStationsCallback                                    
20016d49  cmdCountrycodecallback                                          
200175fd  cmdCreateFilterCallback                                         
20019215  cmdDeleteFilterCallback                                         
200196c9  cmdDisableFilterCallback                                        
2001971d  cmdEnableFilterCallback                                         
2000e371  cmdEnableWoWLANCallback                                         
20012c99  cmdGetProfilecallback                                           
20013e95  cmdHelpCallback                                                 
200103f1  cmdP2PModecallback                                              
200151e9  cmdP2PStopcallback                                              
20011195  cmdPingCallback                                                 
20030398  cmdPromptStr                                                    
20014321  cmdRecvCallback                                                 
200143dd  cmdScanCallback                                                 
20016dc1  cmdSendCallback                                                 
20010785  cmdSetPolicyCallback                                            
2001b951  cmdSoftRoamingDisablecallback                                   
200165e9  cmdSoftRoamingEnablecallback                                    
20013f59  cmdTranceiverModecallback                                       
2001b285  cmdTriggeredRoamingDisablecallback                              
20016e39  cmdTriggeredRoamingEnablecallback                               
2000d7fd  cmdWlanConnectCallback                                          
2001b2c1  cmdWlanDisconnectCallback                                       
2000c669  cmdWlanStartApCallback                                          
20010e55  cmdWlanStopApCallback                                           
200135e9  cmd_prompt                                                      
2003020c  createFilterStr                                                 
2002f6af  createFilterUsageStr                                            
20030504  createFilter_a_optionDetailsStr                                 
20030508  createFilter_e_optionDetailsStr                                 
2003050c  createFilter_f_optionDetailsStr                                 
20030510  createFilter_i_optionDetailsStr                                 
20030514  createFilter_m_optionDetailsStr                                 
20030518  createFilter_o_optionDetailsStr                                 
2003051c  createFilter_v_optionDetailsStr                                 
20030520  creteFilterDetailsStr                                           
2003034d  d_optionStr                                                     
20030524  deleteFilterDetailsStr                                          
20030219  deleteFilterStr                                                 
20030528  descriptionStr                                                  
2003052c  disableFilterDetailsStr                                         
200301e3  disableFilterStr                                                
200303bd  dns_optionStr                                                   
2000b3e1  drawRxHist                                                      
20030660  e_optionStr                                                     
20030530  enableFilterDetailsStr                                          
20030226  enableFilterStr                                                 
20030534  enableWoWLANDetailsStr                                          
20030233  enableWoWLANStr                                                 
2002fccd  enableWoWLANUsageStr                                            
20030538  enableWoWLAN_Note_optionDetailsStr                              
2003053c  enableWoWLAN_i_optionDetailsStr                                 
20030540  enableWoWLAN_u_optionDetailsStr                                 
20030544  enableWoWLAN_v_optionDetailsStr                                 
200303c2  ent_optionStr                                                   
20030548  ext_optionStr                                                   
20030663  f_optionStr                                                     
2001cbe1  free                                                            
20019771  frexp                                                           
20019771  frexpl                                                          
2002f130  gCmdList                                                        
2002fbcb  gGlobalLockCntReleased                                          
2002feb3  gGlobalLockCntRequested                                         
2003054c  gMaxCmd                                                         
2002ffe7  gSaveCursorPosition                                             
20030550  gSpawn_thread                                                   
200303ef  gStackFull                                                      
2002e400  g_CB                                                            
2002ff5c  g_LibsEvents                                                    
20030096  g_SlDeviceStatus                                                
2002eff8  g_SlInternalSpawnCB                                             
2002ff80  g_UserEvents                                                    
20030554  g_intHandle                                                     
20030666  g_optionStr                                                     
20030558  g_pCB                                                           
20030046  getProfileUsageStr                                              
2001cbfd  getch                                                           
2001c8ad  gpioButtonFxn1                                                  
2002eca4  gpioCallbackFunctions                                           
2002f84c  gpioPinConfigs                                                  
2002ed28  gpioUserArgs                                                    
2003055c  gw_optionStr                                                    
20030669  h_optionStr                                                     
20030560  helpDetailsStr                                                  
200303c7  helpStr                                                         
2003015f  helpUsageStr                                                    
20030564  help_optaionDetails                                             
2003039e  help_optionStr                                                  
20018c71  hexbyteStrtoASCII                                               
2003066c  i_optionStr                                                     
20011bcd  initAppVariables                                                
20030568  ip_optionStr                                                    
20017261  ipv4AddressParse                                                
200119d1  ipv6AddressParse                                                
20019a01  is5GhzChannel                                                   
2001cfeb  isChannelAt                                                     
2003066f  l_optionStr                                                     
2001401d  ldexp                                                           
2001401d  ldexpl                                                          
20030672  lineBreak                                                       
20011cc9  mDNSAdvertiseCallback                                           
20030570  mDNSAdvertiseDetailsStr                                         
200301f1  mDNSAdvertiseStr                                                
2002f7c5  mDNSAdvertiseUsageStr                                           
20030574  mDNSAdvertise_n_optionDetailsStr                                
20030578  mDNSAdvertise_p_optionDetailsStr                                
2003057c  mDNSAdvertise_so_optionDetailsStr                               
20030580  mDNSAdvertise_st_optionDetailsStr                               
20030584  mDNSAdvertise_t_optionDetailsStr                                
20030588  mDNSAdvertise_ttl_optionDetailsStr                              
2000dcfd  mDNSQueryCallback                                               
2003031d  mDNSQueryStr                                                    
200160f5  mDNScreateServiceName                                           
2003058c  mDNSdQueryDetailsStr                                            
2002fc28  mDNSdQueryUsageStr                                              
20030590  mDNSdQuery_n_optionDetailsStr                                   
20030594  mDNSdQuery_o_optionDetailsStr                                   
20030598  mDNSdQuery_so_optionDetailsStr                                  
2003059c  mDNSdQuery_st_optionDetailsStr                                  
20030675  m_optionStr                                                     
20017f5b  macAddressParse                                                 
200303cc  mac_optionStr                                                   
2001926d  main                                                            
200117c9  mainThread                                                      
2001d84d  malloc                                                          
2001caa1  memccpy                                                         
20030678  n_optionStr                                                     
200305a0  nb_optionStr                                                    
2003067b  o_optionStr                                                     
200112a1  p2pConnect                                                      
200305a4  p2pStartDetailsStr                                              
20030344  p2pStartcmdStr                                                  
200305a8  p2pStopDetailsStr                                               
20030360  p2pStopcmdStr                                                   
200305ac  pPingCallBackFunc                                               
2003067e  p_optionStr                                                     
2002f440  parkInfo                                                        
200305b0  pingDetailsStr                                                  
200303d1  pingStr                                                         
2002f9cd  pingUsageStr                                                    
200305b4  ping_c_optionDetailsStr                                         
200305b8  ping_h_optionDetailsStr                                         
200305bc  ping_i_optionDetailsStr                                         
200305c0  ping_s_optionDetailsStr                                         
200305c4  ping_t_optionDetailsStr                                         
20019a51  printAPTransitionDisableUsage                                   
20019aa1  printAPTransitionEnableUsage                                    
20016335  printAddProfileUsage                                            
20019af1  printAntSelectionDisableUsage                                   
20018ccd  printAntSelectionEnableUsage                                    
2001ce69  printBorder                                                     
2001ae69  printClearUsage                                                 
20019b41  printCoexDisableUsage                                           
20018d29  printCoexEnableUsage                                            
20019b91  printConnectedStationsUsage                                     
200182f9  printCountrycodeeUsage                                          
200141a1  printCreateFilterUsage                                          
20019fdd  printDeleteFilterUsage                                          
2001a029  printDisableFilterUsage                                         
2001a075  printEnableFilterUsage                                          
20016eb1  printEnableWoWLANUsage                                          
2000d11d  printExtScanResults                                             
20016185  printFrameSubTyps                                               
20018d85  printGetProfileUsage                                            
2001a47d  printHelpUsage                                                  
200192c5  printP2PStartUsage                                              
2001931d  printP2PStopUsage                                               
200166f1  printPingUsage                                                  
200146c5  printRecvUsage                                                  
2000e969  printScanResults                                                
200172d5  printScanUsage                                                  
200155c1  printSendUsage                                                  
200163c1  printSetPolicyUsage                                             
20019be1  printSoftRoamingDisableUsage                                    
2001835d  printSoftRoamingEnableUsage                                     
2001a0c1  printTranceiverModeUsage                                        
20019c31  printTriggeredRoamingDisableUsage                               
200183c1  printTriggeredRoamingEnableUsage                                
20015965  printWlanConnectUsage                                           
20019c81  printWlanDisconnectUsage                                        
200159fd  printWlanStartApUsage                                           
20019cd1  printWlanStopApUsage                                            
20016215  printmDNSAdvertiseUsage                                         
200169f1  printmDNSQueryUsage                                             
200305c8  priority_optionStr                                              
2001ce81  pthread_attr_init                                               
2001d5ad  pthread_attr_setdetachstate                                     
2001d12d  pthread_attr_setschedparam                                      
2001d807  pthread_attr_setstacksize                                       
20018425  pthread_cancel                                                  
200131bd  pthread_create                                                  
20018de1  pthread_exit                                                    
200197c5  pthread_join                                                    
2001d141  pthread_mutex_destroy                                           
2001b625  pthread_mutex_init                                              
2001d771  pthread_mutex_lock                                              
2001b985  pthread_mutex_unlock                                            
2001d155  pthread_mutexattr_init                                          
2001d5b9  pthread_mutexattr_settype                                       
2001d5c5  pthread_self                                                    
2001644d  pushCommand                                                     
2001cc19  putch                                                           
20030681  r_optionStr                                                     
2001bfc9  radioTool_Close                                                 
2001c269  radioTool_GetStats                                              
20016561  radioTool_Open                                                  
20018489  radioTool_RxStart                                               
2001c5fd  radioTool_RxStop                                                
2000b1a1  radioTool_TxStart                                               
2001aea9  radioTool_TxStop                                                
2002f12c  radioTool_rawSocketdesc                                         
2002fd58  radiotoolDetailsStr                                             
20030196  radiotool_PromptStr                                             
20030327  radiotool_Str                                                   
2001a4c5  realloc                                                         
200305cc  recvDetailsStr                                                  
200303d6  recvStr                                                         
200305d0  recvUsage1Str                                                   
200305d4  recvUsage2Str                                                   
200305d8  recv_6_optionDetailsStr                                         
2002fb10  recv_Note_optionDetailsStr                                      
200305dc  recv_c_optionDetailsStr                                         
200305e0  recv_nb_optionDetailsStr                                        
200305e4  recv_p_optionDetailsStr                                         
200305e8  recv_s_optionDetailsStr                                         
200305ec  recv_u_optionDetailsStr                                         
2001a9fd  retCommand                                                      
20030684  s_optionStr                                                     
2001401d  scalbn                                                          
2001401d  scalbnl                                                         
200305f0  scanDetailsStr                                                  
200303db  scanStr                                                         
2002fee4  scanUsageStr                                                    
200305f4  scan_Note_optionDetailsStr                                      
200305f8  scan_ext_optionDetailsStr                                       
200305fc  scan_n_optionDetailsStr                                         
2001d6c3  sem_destroy                                                     
2001d779  sem_getvalue                                                    
2001c291  sem_init                                                        
2001d6cd  sem_post                                                        
2001b067  sem_timedwait                                                   
2001d3c7  sem_wait                                                        
20017cd9  sem_wait_timeout                                                
2001a50d  sendConnectionReq                                               
20030600  sendDetailsStr                                                  
200303e0  sendStr                                                         
2002fb6e  sendUsage1Str                                                   
2002fc7f  sendUsage2Str                                                   
2002ffa4  send_6_optionDetailsStr                                         
2002f953  send_c_optionDetailsStr                                         
2002fe44  send_n_optionDetailsStr                                         
2002fe7c  send_n_r_optionDetailsStr                                       
2002fe0b  send_nb_optionDetailsStr                                        
2002fdd0  send_p_optionDetailsStr                                         
20030061  send_s_optionDetailsStr                                         
20030008  send_u_optionDetailsStr                                         
2000fa0d  setP2Pparams                                                    
20030604  setPolicyDetailsStr                                             
20030331  setPolicyStr                                                    
2002f8d0  setPolicyUsageStr                                               
20030608  setPolicy_c_optionDetailsStr                                    
2003060c  setPolicy_d_optionDetailsStr                                    
20030610  setPolicy_h_optionDetailsStr                                    
20030614  setPolicy_i_optionDetailsStr                                    
20030618  setPolicy_o_optionDetailsStr                                    
2003061c  setPolicy_r_optionDetailsStr                                    
20011ec1  setStaticIPConfig                                               
20016a6d  showAvailableCmd                                                
20017fc5  showCCAThreshHoldMenu                                           
20017349  showMenu                                                        
20011fb9  showModCodeMenu                                                 
200184ed  showPHYConfMenu                                                 
2001c2b9  showPowMenu                                                     
20019375  showPreambleMenu                                                
2001aa41  showRxMenu                                                      
2001802d  showTxMenu                                                      
2000c09d  sl_Accept                                                       
2001378b  sl_Bind                                                         
20010f6d  sl_Close                                                        
2000d2d9  sl_Connect                                                      
20012911  sl_DeviceGet                                                    
20015a95  sl_DeviceSet                                                    
2001a1ed  sl_Htonl                                                        
2001a237  sl_Htons                                                        
20017589  sl_Listen                                                       
2000d9ad  sl_NetAppDnsGetHostByName                                       
2000f771  sl_NetAppDnsGetHostByService                                    
20013c47  sl_NetAppGet                                                    
20012655  sl_NetAppGetServiceList                                         
20016f29  sl_NetAppMDNSRegisterService                                    
200193cd  sl_NetAppMDNSUnRegisterService                                  
2000ad09  sl_NetAppPing                                                   
200156fd  sl_NetAppSet                                                    
20018925  sl_NetAppStart                                                  
20018985  sl_NetAppStop                                                   
2001273f  sl_NetCfgGet                                                    
20015797  sl_NetCfgSet                                                    
2001528d  sl_Recv                                                         
2000e041  sl_RecvFrom                                                     
20012f31  sl_Send                                                         
200108b1  sl_SendTo                                                       
20015331  sl_SetSockOpt                                                   
20015cf1  sl_Socket                                                       
2000eae1  sl_Start                                                        
2000a835  sl_Stop                                                         
2001d3d5  sl_Task                                                         
20007dfd  sl_WifiConfig                                                   
20008d5d  sl_WlanConnect                                                  
2001b65d  sl_WlanDisconnect                                               
200129f5  sl_WlanGet                                                      
20015091  sl_WlanGetExtNetworkList                                        
2001513d  sl_WlanGetNetworkList                                           
20015d85  sl_WlanPolicySet                                                
20008167  sl_WlanProfileAdd                                               
20018165  sl_WlanProfileDel                                               
2000f365  sl_WlanProfileGet                                               
200120b1  sl_WlanProvisioning                                             
20013ab9  sl_WlanRxFilterAdd                                              
2001300b  sl_WlanRxStatGet                                                
20014499  sl_WlanRxStatStart                                              
2001477d  sl_WlanRxStatStop                                               
20015831  sl_WlanSet                                                      
200181cb  sl_WlanSetMode                                                  
2001c2e1  sleep                                                           
20030620  so_optionStr                                                    
20030690  space_str                                                       
20026774  spiCC32XXDMAHWAttrs                                             
2002df60  spiCC32XXDMAObjects                                             
2002f114  spiCC32XXSDMAscratchBuf                                         
2001d237  spi_Close                                                       
20017019  spi_Open                                                        
20014bc1  spi_Read                                                        
20014c75  spi_Write                                                       
20030624  st_optionStr                                                    
20009049  strcmp                                                          
2001c8cd  strcspn                                                         
2001c7e9  strspn                                                          
2001bff5  strstr                                                          
2001aee9  strtok                                                          
20010181  strtol                                                          
20010b05  strtoul                                                         
20030687  t_optionStr                                                     
2001aa85  ti_sysbios_family_arm_m3_Hwi_Instance_finalize                  
2001766d  ti_sysbios_family_arm_m3_Hwi_Instance_init                      
2002fa6c  ti_sysbios_family_arm_m3_Hwi_Module_state                       
2001c645  ti_sysbios_family_arm_m3_Hwi_construct                          
2001aac9  ti_sysbios_family_arm_m3_Hwi_construct2                         
2001a555  ti_sysbios_family_arm_m3_Hwi_create                             
2001c8ed  ti_sysbios_family_arm_m3_Hwi_delete                             
2001d80d  ti_sysbios_family_arm_m3_Hwi_destruct                           
2001ab0d  ti_sysbios_family_arm_m3_Hwi_disableInterrupt                   
20012569  ti_sysbios_family_arm_m3_Hwi_dispatch                           
20017d45  ti_sysbios_family_arm_m3_Hwi_dispatchC                          
2002dc54  ti_sysbios_family_arm_m3_Hwi_dispatchTable                      
2001d813  ti_sysbios_family_arm_m3_Hwi_doSwiRestore                       
2001d819  ti_sysbios_family_arm_m3_Hwi_doTaskRestore                      
2001ab51  ti_sysbios_family_arm_m3_Hwi_enableInterrupt                    
20013295  ti_sysbios_family_arm_m3_Hwi_excFillContext                     
2001d351  ti_sysbios_family_arm_m3_Hwi_excHandler                         
2001c309  ti_sysbios_family_arm_m3_Hwi_excHandlerAsm                      
2001bd09  ti_sysbios_family_arm_m3_Hwi_excHandlerMin                      
2001b9b9  ti_sysbios_family_arm_m3_Hwi_getStackInfo                       
2001b9ed  ti_sysbios_family_arm_m3_Hwi_init                               
200173bd  ti_sysbios_family_arm_m3_Hwi_initNVIC                           
2001c90d  ti_sysbios_family_arm_m3_Hwi_initStack                          
2001a59d  ti_sysbios_family_arm_m3_Hwi_initStacks                         
2001261c  ti_sysbios_family_arm_m3_Hwi_interruptsAreDisabledButShouldNotBe
20012621  ti_sysbios_family_arm_m3_Hwi_pendSV                             
20016ae9  ti_sysbios_family_arm_m3_Hwi_postInit                           
20030800  ti_sysbios_family_arm_m3_Hwi_ramVectors                         
20004000  ti_sysbios_family_arm_m3_Hwi_resetVectors                       
20012638  ti_sysbios_family_arm_m3_Hwi_return                             
2002c564  ti_sysbios_family_arm_m3_Hwi_swiTaskKeyAddress                  
2001cabf  ti_sysbios_family_arm_m3_Hwi_switchAndRunFunc                   
2001d169  ti_sysbios_family_arm_m3_Hwi_switchFromBootStack                
2001b695  ti_sysbios_family_arm_m3_Timer_Instance_finalize                
200118cd  ti_sysbios_family_arm_m3_Timer_Instance_init                    
200300ec  ti_sysbios_family_arm_m3_Timer_Module_state                     
2001c021  ti_sysbios_family_arm_m3_Timer_construct                        
2001a5e5  ti_sysbios_family_arm_m3_Timer_initDevice                       
2001c331  ti_sysbios_family_arm_m3_Timer_oneShotStub                      
2001ba21  ti_sysbios_family_arm_m3_Timer_periodicStub                     
2001c669  ti_sysbios_family_arm_m3_Timer_postInit                         
2001c359  ti_sysbios_family_arm_m3_Timer_setPeriod                        
2001ab95  ti_sysbios_family_arm_m3_Timer_setPeriodMicroSecs               
20019819  ti_sysbios_family_arm_m3_Timer_start                            
2001c68d  ti_sysbios_family_arm_m3_Timer_startup                          
2002e7fc  ti_sysbios_family_arm_m3_Timer_startupNeeded                    
2001ceb1  ti_sysbios_family_arm_m3_Timer_stop                             
2002f124  ti_sysbios_family_arm_m3_TimestampProvider_Module_state         
2001c381  ti_sysbios_gates_GateMutex_Instance_init                        
20030368  ti_sysbios_gates_GateMutex_Module_state                         
2001c04d  ti_sysbios_gates_GateMutex_enter                                
2001d445  ti_sysbios_gates_GateMutex_leave                                
2002f0e8  ti_sysbios_hal_Seconds_Module_state                             
2001a62d  ti_sysbios_hal_Seconds_getCount                                 
20017db1  ti_sysbios_hal_Seconds_getTime                                  
2001d25b  ti_sysbios_hal_Seconds_set                                      
20018551  ti_sysbios_hal_Seconds_setTime                                  
2001a675  ti_sysbios_heaps_HeapMem_Instance_init                          
20030370  ti_sysbios_heaps_HeapMem_Module_state                           
2001a6bd  ti_sysbios_heaps_HeapMem_alloc                                  
200176dd  ti_sysbios_heaps_HeapMem_allocUnprotected                       
2001b2fd  ti_sysbios_heaps_HeapMem_construct                              
2001bd39  ti_sysbios_heaps_HeapMem_free                                   
20019e5d  ti_sysbios_heaps_HeapMem_freeUnprotected                        
2002f020  ti_sysbios_heaps_HeapMem_gate                                   
2001af29  ti_sysbios_heaps_HeapMem_getStats                               
2001d5d1  ti_sysbios_heaps_HeapMem_init                                   
2001d851  ti_sysbios_heaps_HeapMem_isBlocking                             
2001af69  ti_sysbios_knl_ClockSupport_init                                
2001d17d  ti_sysbios_knl_ClockSupport_setPeriodMicroSecs                  
2001d5dd  ti_sysbios_knl_ClockSupport_start                               
2001d5e9  ti_sysbios_knl_ClockSupport_stop                                
2002ef44  ti_sysbios_knl_ClockSupport_timerStruct                         
2002faa8  ti_sysbios_knl_Clock_Module_state                               
2001c92d  ti_sysbios_knl_Clock_addI                                       
20018095  ti_sysbios_knl_Clock_init                                       
2001c94d  ti_sysbios_knl_Clock_tick                                       
2001d453  ti_sysbios_knl_Clock_tickReconfig                               
2001bd69  ti_sysbios_knl_Clock_walkQueuePeriodic                          
20017e1d  ti_sysbios_knl_Clock_workFunc                                   
2002c3f0  ti_sysbios_knl_Idle_funcList                                    
200185b5  ti_sysbios_knl_Idle_init                                        
2002fbcf  ti_sysbios_knl_Idle_initDone                                    
2001d81f  ti_sysbios_knl_Idle_loop                                        
2001cc35  ti_sysbios_knl_Idle_run                                         
2002e800  ti_sysbios_knl_Idle_taskStack                                   
2002eeac  ti_sysbios_knl_Idle_taskStruct                                  
2001cc51  ti_sysbios_knl_Queue_put                                        
2001c3a9  ti_sysbios_knl_Semaphore_Instance_init                          
20030378  ti_sysbios_knl_Semaphore_Module_state                           
2001cc6d  ti_sysbios_knl_Semaphore_construct                              
2001cadd  ti_sysbios_knl_Semaphore_create                                 
2001c96d  ti_sysbios_knl_Semaphore_delete                                 
2001c6b1  ti_sysbios_knl_Semaphore_destruct                               
200121a9  ti_sysbios_knl_Semaphore_pend                                   
2001bb85  ti_sysbios_knl_Semaphore_pendTimeout                            
200189e5  ti_sysbios_knl_Semaphore_post                                   
2001a10d  ti_sysbios_knl_Swi_Instance_init                                
2002fc00  ti_sysbios_knl_Swi_Module_state                                 
2001c3d1  ti_sysbios_knl_Swi_init                                         
20019d21  ti_sysbios_knl_Swi_post                                         
2002edac  ti_sysbios_knl_Swi_readyQs                                      
2001abd9  ti_sysbios_knl_Swi_restore                                      
20017431  ti_sysbios_knl_Swi_restoreHwi                                   
200180fd  ti_sysbios_knl_Swi_run                                          
20019d71  ti_sysbios_knl_Swi_runLoop                                      
20018a45  ti_sysbios_knl_Swi_schedule                                     
2001d825  ti_sysbios_knl_Swi_startup                                      
2001b6cd  ti_sysbios_knl_TaskSupport_buildTaskStack                       
2001cec9  ti_sysbios_knl_TaskSupport_glue                                 
2001bd99  ti_sysbios_knl_TaskSupport_start                                
2001c98d  ti_sysbios_knl_TaskSupport_swap                                 
2001c994  ti_sysbios_knl_TaskSupport_swapReturn                           
20014835  ti_sysbios_knl_Task_Instance_finalize                           
200153d5  ti_sysbios_knl_Task_Instance_init                               
2002fd94  ti_sysbios_knl_Task_Module_state                                
2001c14d  ti_sysbios_knl_Task_allBlockedFunction                          
2001b339  ti_sysbios_knl_Task_blockI                                      
2001c3f9  ti_sysbios_knl_Task_construct                                   
2001ac1d  ti_sysbios_knl_Task_create                                      
2002f128  ti_sysbios_knl_Task_defaultStackHeap                            
2001c9ad  ti_sysbios_knl_Task_delete                                      
2001c9cd  ti_sysbios_knl_Task_destruct                                    
2001c6d5  ti_sysbios_knl_Task_enter                                       
2001afa9  ti_sysbios_knl_Task_exit                                        
2001c421  ti_sysbios_knl_Task_init                                        
20016fa1  ti_sysbios_knl_Task_postInit                                    
2001b705  ti_sysbios_knl_Task_processVitalTaskFlag                        
2002ee2c  ti_sysbios_knl_Task_readyQs                                     
2001b375  ti_sysbios_knl_Task_restore                                     
2001c079  ti_sysbios_knl_Task_restoreHwi                                  
2001a705  ti_sysbios_knl_Task_schedule                                    
200148ed  ti_sysbios_knl_Task_setPri                                      
20015479  ti_sysbios_knl_Task_sleep                                       
2001cda7  ti_sysbios_knl_Task_sleepTimeout                                
2001774d  ti_sysbios_knl_Task_startup                                     
2001cee1  ti_sysbios_knl_Task_unblock                                     
2001ba55  ti_sysbios_knl_Task_unblockI                                    
2002fbe8  ti_sysbios_runtime_Error_ignore                                 
2001ba89  ti_sysbios_runtime_Error_raiseX                                 
2001b3b1  ti_sysbios_runtime_Memory_alloc                                 
2002fbd0  ti_sysbios_runtime_Memory_defaultHeapInstance                   
2002fbcc  ti_sysbios_runtime_Startup_done                                 
2001a74d  ti_sysbios_runtime_Startup_exec                                 
2002fbf4  ti_sysbios_runtime_System_Module_state                          
2001bdc9  ti_sysbios_runtime_System_atexit                                
2002f0ac  ti_sysbios_runtime_System_atexitHandlers                        
2001d781  ti_sysbios_runtime_System_exit                                  
2000f8bf  ti_sysbios_runtime_System_exitSpin                              
2001bdf9  ti_sysbios_runtime_System_processAtExit                         
200303e5  ttl_optionStr                                                   
200303ea  txpow_optionStr                                                 
20019eab  uDMAChannelAssign                                               
20015fd3  uDMAChannelAttributeDisable                                     
2001afe9  uDMAChannelControlSet                                           
2001cafb  uDMAChannelDisable                                              
2001cb19  uDMAChannelEnable                                               
2001cb37  uDMAChannelIsEnabled                                            
2001a281  uDMAChannelSizeGet                                              
20011083  uDMAChannelTransferSet                                          
2001d5f5  uDMAControlBaseGet                                              
2001d191  uDMAControlBaseSet                                              
2001d461  uDMAEnable                                                      
2001d46f  uDMAErrorStatusClear                                            
2001d601  uDMAErrorStatusGet                                              
2001d1a5  uDMAIntClear                                                    
2003068a  u_optionStr                                                     
2002ea00  uart2CC32XXObjects0                                             
2002c288  udmaCC3220SHWAttrs                                              
2002f11c  udmaCC3220SObject                                               
200302cc  usageStr                                                        
2001be29  usleep                                                          
2003068d  v_optionStr                                                     
2001b3ed  vsnprintf                                                       
2001d361  wcslen                                                          
20030628  wlanAddProfileDetailsStr                                        
2003062c  wlanConnectDetailsStr                                           
20030288  wlanConnectStr                                                  
2002f618  wlanConnectUsageStr                                             
20030630  wlanConnect_dns_optionDetailsStr                                
20030634  wlanConnect_ent_optionDetailStr                                 
20030638  wlanConnect_gw_optionDetailsStr                                 
2003063c  wlanConnect_ip_optionDetailsStr                                 
20030640  wlanConnect_p_optionDetailsStr                                  
20030644  wlanConnect_s_optionDetailsStr                                  
20030648  wlanConnect_t_optionDetailsStr                                  
2003064c  wlanDisConnectDetailsStr                                        
200301b8  wlanDisconnectStr                                               
20030294  wlanDisconnectUsageStr                                          
20030650  wlanGetProfileDetailsStr                                        
20030654  wlanProfile_i_optionDetailsStr                                  
20030658  wlanProfile_mac_optionDetailsStr                                
2003065c  wlanProfile_pr_optionDetailsStr                                 


GLOBAL SYMBOLS: SORTED BY Symbol Address 

address   name                                                            
-------   ----                                                            
00000000  __TI_ATRegion0_region_sz                                        
00000000  __TI_ATRegion0_src_addr                                         
00000000  __TI_ATRegion0_trg_addr                                         
00000000  __TI_ATRegion1_region_sz                                        
00000000  __TI_ATRegion1_src_addr                                         
00000000  __TI_ATRegion1_trg_addr                                         
00000000  __TI_ATRegion2_region_sz                                        
00000000  __TI_ATRegion2_src_addr                                         
00000000  __TI_ATRegion2_trg_addr                                         
00000400  __STACK_SIZE                                                    
00008000  HEAPSIZE                                                        
20003c00  __stack                                                         
20004000  __STACK_END                                                     
20004000  __start___llvm_prf_bits                                         
20004000  __start___llvm_prf_cnts                                         
20004000  __stop___llvm_prf_bits                                          
20004000  __stop___llvm_prf_cnts                                          
20004000  ti_sysbios_family_arm_m3_Hwi_resetVectors                       
20004a77  BIOS_nullFunc                                                   
20004a79  __TI_printfi                                                    
20005451  TxTask                                                          
20005ba1  ParseCreateFilterCmd                                            
2000613d  _SlSocketHandleAsync_Select                                     
20006647  PRCMCC3200MCUInit                                               
20006f13  Board_initHook                                                  
20006f15  Power_sleep                                                     
200072f9  _SlDrvReleasePoolObj                                            
20007a59  _SlDrvWaitForPoolObj                                            
20007dfd  sl_WifiConfig                                                   
20008167  sl_WlanProfileAdd                                               
20008495  _SlDrvDataReadOp                                                
2000878b  SimpleLinkHttpServerEventHandler                                
2000878d  ParseStartApCmd                                                 
20008a7d  ParseConnectCmd                                                 
20008d5d  sl_WlanConnect                                                  
20009049  strcmp                                                          
2000931d  TCPServer                                                       
200095e5  _SlDrvDataWriteOp                                               
200098a3  SimpleLinkNetAppRequestEventHandler                             
200098a5  ParseRecvCmd                                                    
20009dff  _SlDrvDriverCBInit                                              
2000a0a1  ParseProfileCmd                                                 
2000a341  UDPServer                                                       
2000a5bd  ParseSendCmd                                                    
2000a835  sl_Stop                                                         
2000aaa7  SimpleLinkNetAppRequestMemFreeEventHandler                      
2000aaa9  SimpleLinkWlanEventHandler                                      
2000ad09  sl_NetAppPing                                                   
2000af61  UDPClient                                                       
2000b1a1  radioTool_TxStart                                               
2000b3e1  drawRxHist                                                      
2000b835  _SlNetAppEventHandler                                           
2000bc7d  _SlDrvReleaseAllActivePendingPoolObj                            
2000be95  TCPClient                                                       
2000c09d  sl_Accept                                                       
2000c29f  SimpleLinkSockEventHandler                                      
2000c669  cmdWlanStartApCallback                                          
2000c83d  UART2_readTimeout                                               
2000ca0f  __aeabi_ldiv0                                                   
2000ca11  UART2_open                                                      
2000cbdd  ParsemDNSAdvertiseCmd                                           
2000cda5  ParsePingCmd                                                    
2000cf61  RxTask                                                          
2000d11d  printExtScanResults                                             
2000d2d9  sl_Connect                                                      
2000d495  __aeabi_dsub                                                    
2000d495  __subdf3                                                        
2000d49f  __adddf3                                                        
2000d49f  __aeabi_dadd                                                    
2000d64b  _nop                                                            
2000d64d  ParseSetPolicyCmd                                               
2000d7fd  cmdWlanConnectCallback                                          
2000d9ad  sl_NetAppDnsGetHostByName                                       
2000db59  SPICC32XXDMA_transfer                                           
2000dcfd  mDNSQueryCallback                                               
2000dea1  DisplayAppBanner                                                
2000e041  sl_RecvFrom                                                     
2000e1dd  _SlDrvMsgReadSpawnCtx                                           
2000e371  cmdEnableWoWLANCallback                                         
2000e675  _SlDrvDriverCBDeinit                                            
2000e7ef  _SlSpawnMsgListInsert                                           
2000e969  printScanResults                                                
2000eae1  sl_Start                                                        
2000ec57  UART2_writeTimeoutBlocking                                      
2000edcb  _SlDrvObjGlobalLockWaitForever                                  
2000ef35  ParseEnableWoWLANCmd                                            
2000f365  sl_WlanProfileGet                                               
2000f4c3  _system_pre_init                                                
2000f4c5  ParsemDNSQueryCmd                                               
2000f61d  _SlDrvCmdOp                                                     
2000f771  sl_NetAppDnsGetHostByService                                    
2000f8bf  ti_sysbios_runtime_System_exitSpin                              
2000fa0d  setP2Pparams                                                    
2000fb51  GPIO_setConfig                                                  
2000fc91  _SlDeviceEventHandler                                           
2000fdd1  GetCmd                                                          
20010049  SPICC32XXDMA_open                                               
20010181  strtol                                                          
200102b9  __aeabi_ddiv                                                    
200102b9  __divdf3                                                        
200103f1  cmdP2PModecallback                                              
20010525  SimpleLinkNetAppEventHandler                                    
20010655  _SlDrvWaitForInternalAsyncEvent                                 
20010785  cmdSetPolicyCallback                                            
200108b1  sl_SendTo                                                       
200109db  _SlNetAppHandleAsync_DnsGetHostByService                        
20010b05  strtoul                                                         
20010c21  UART2_writeTimeoutNonblocking                                   
20010e55  cmdWlanStopApCallback                                           
20010f6d  sl_Close                                                        
20011083  uDMAChannelTransferSet                                          
20011195  cmdPingCallback                                                 
200112a1  p2pConnect                                                      
200113ad  PowerCC32XX_sleepPolicy                                         
200114b5  cmdConnectedStationsCallback                                    
200115bd  _SlDeviceHandleAsync_InitComplete                               
200116c3  _SlNetAppMDNSRegisterUnregisterService                          
200117c9  mainThread                                                      
200118cd  ti_sysbios_family_arm_m3_Timer_Instance_init                    
200119d1  ipv6AddressParse                                                
20011ad1  __aeabi_dmul                                                    
20011ad1  __muldf3                                                        
20011bcd  initAppVariables                                                
20011cc9  mDNSAdvertiseCallback                                           
20011dc5  __aeabi_fsub                                                    
20011dc5  __subsf3                                                        
20011dc9  __addsf3                                                        
20011dc9  __aeabi_fadd                                                    
20011ec1  setStaticIPConfig                                               
20011fb9  showModCodeMenu                                                 
200120b1  sl_WlanProvisioning                                             
200121a9  ti_sysbios_knl_Semaphore_pend                                   
2001229d  ParseCountycodeCmd                                              
2001247b  _SlDrvDriverIsApiAllowed                                        
20012569  ti_sysbios_family_arm_m3_Hwi_dispatch                           
2001261c  ti_sysbios_family_arm_m3_Hwi_interruptsAreDisabledButShouldNotBe
20012621  ti_sysbios_family_arm_m3_Hwi_pendSV                             
20012638  ti_sysbios_family_arm_m3_Hwi_return                             
20012655  sl_NetAppGetServiceList                                         
2001273f  sl_NetCfgGet                                                    
20012829  UART2_close                                                     
20012911  sl_DeviceGet                                                    
200129f5  sl_WlanGet                                                      
20012ad7  NwpPowerOff                                                     
20012bb9  ParseScanCmd                                                    
20012c99  cmdGetProfilecallback                                           
20012d79  _SlNetAppHandleAsync_NetAppReceive                              
20012e55  cmdAddProfilecallback                                           
20012f31  sl_Send                                                         
2001300b  sl_WlanRxStatGet                                                
200130e5  ParseTriggeredRoamingEnableCmd                                  
200131bd  pthread_create                                                  
20013295  ti_sysbios_family_arm_m3_Hwi_excFillContext                     
2001336d  SPICC32XXDMA_transferCancel                                     
20013441  Semaphore_pend_handle                                           
20013515  clock_gettime                                                   
200135e9  cmd_prompt                                                      
200136bd  _SlNetAppHandleAsync_DnsGetHostByName                           
2001378b  sl_Bind                                                         
20013859  UART2Support_dmaStartRx                                         
20013925  _SlDrvHandleFatalError                                          
200139ef  _SlNetAppHandleAsync_PingResponse                               
20013ab9  sl_WlanRxFilterAdd                                              
20013b81  PRCMPeripheralClockGet                                          
20013c47  sl_NetAppGet                                                    
20013dd1  _SlDrvIsTimeoutExpired                                          
20013e95  cmdHelpCallback                                                 
20013f59  cmdTranceiverModecallback                                       
2001401d  ldexp                                                           
2001401d  ldexpl                                                          
2001401d  scalbn                                                          
2001401d  scalbnl                                                         
200140e1  _SlNetUtilHandleAsync_Cmd                                       
200141a1  printCreateFilterUsage                                          
20014261  _SlNetAppSendResponse                                           
20014321  cmdRecvCallback                                                 
200143dd  cmdScanCallback                                                 
20014499  sl_WlanRxStatStart                                              
20014555  UART2Support_dmaStartTx                                         
2001460d  _SlSpawnMsgListProcess                                          
200146c5  printRecvUsage                                                  
2001477d  sl_WlanRxStatStop                                               
20014835  ti_sysbios_knl_Task_Instance_finalize                           
200148ed  ti_sysbios_knl_Task_setPri                                      
200149a5  ParseSoftRoamingEnableCmd                                       
20014a59  SPICC32XXDMA_close                                              
20014b0d  SPIConfigSetExpClk                                              
20014bc1  spi_Read                                                        
20014c75  spi_Write                                                       
20014d29  _SlDrvProtectAsyncRespSetting                                   
20014ddd  __udivmoddi4                                                    
20014e8d  GPIOIntTypeSet                                                  
20014f39  _SlSocketHandleAsync_Close                                      
20014fe5  _SlSocketHandleAsync_Connect                                    
20015091  sl_WlanGetExtNetworkList                                        
2001513d  sl_WlanGetNetworkList                                           
200151e9  cmdP2PStopcallback                                              
2001528d  sl_Recv                                                         
20015331  sl_SetSockOpt                                                   
200153d5  ti_sysbios_knl_Task_Instance_init                               
20015479  ti_sysbios_knl_Task_sleep                                       
2001551d  PinConfigSet                                                    
200155c1  printSendUsage                                                  
20015661  _SlSocketHandleAsync_Accept                                     
200156fd  sl_NetAppSet                                                    
20015797  sl_NetCfgSet                                                    
20015831  sl_WlanSet                                                      
200158cb  _SlDeviceHandleAsync_Stop                                       
20015965  printWlanConnectUsage                                           
200159fd  printWlanStartApUsage                                           
20015a95  sl_DeviceSet                                                    
20015b2d  HwiP_destruct                                                   
20015b31  PowerCC32XX_enterLPDS                                           
20015b75  PowerCC32XX_resumeLPDS                                          
20015bc9  cmdAntSelectionEnablecallback                                   
20015c5d  cmdCoexEnablecallback                                           
20015cf1  sl_Socket                                                       
20015d85  sl_WlanPolicySet                                                
20015ead  SPIIntStatus                                                    
20015f41  __aeabi_fdiv                                                    
20015f41  __divsf3                                                        
20015fd3  uDMAChannelAttributeDisable                                     
20016065  GPIO_init                                                       
200160f5  mDNScreateServiceName                                           
20016185  printFrameSubTyps                                               
20016215  printmDNSAdvertiseUsage                                         
200162a5  PRCMSysResetCauseGet                                            
20016335  printAddProfileUsage                                            
200163c1  printSetPolicyUsage                                             
2001644d  pushCommand                                                     
200164d9  PowerCC32XX_configureWakeup                                     
20016561  radioTool_Open                                                  
200165e9  cmdSoftRoamingEnablecallback                                    
200166f1  printPingUsage                                                  
20016775  ParsegetProfileCmd                                              
200167f5  _pthread_abstime2ticks                                          
20016875  cmdAntSelectionDisablecallback                                  
200168f5  cmdCoexDisablecallback                                          
20016975  _SlNetAppSendTokenValue                                         
200169f1  printmDNSQueryUsage                                             
20016a6d  showAvailableCmd                                                
20016ae9  ti_sysbios_family_arm_m3_Hwi_postInit                           
20016b65  __aeabi_fmul                                                    
20016b65  __mulsf3                                                        
20016be1  Power_init                                                      
20016c59  _SlDrvRxIrqHandler                                              
20016cd1  _pthread_removeThreadKeys                                       
20016d49  cmdCountrycodecallback                                          
20016dc1  cmdSendCallback                                                 
20016e39  cmdTriggeredRoamingEnablecallback                               
20016eb1  printEnableWoWLANUsage                                          
20016f29  sl_NetAppMDNSRegisterService                                    
20016fa1  ti_sysbios_knl_Task_postInit                                    
20017019  spi_Open                                                        
2001708f  PRCMHibernateWakeUpGPIOSelect                                   
20017103  UARTConfigSetExpClk                                             
20017177  _SlSpawnMsgListGetCount                                         
20017261  ipv4AddressParse                                                
200172d5  printScanUsage                                                  
20017349  showMenu                                                        
200173bd  ti_sysbios_family_arm_m3_Hwi_initNVIC                           
20017431  ti_sysbios_knl_Swi_restoreHwi                                   
200174a5  _SlDeviceHandleResetRequestInternally                           
20017517  _SlInternalSpawn                                                
20017589  sl_Listen                                                       
200175fd  cmdCreateFilterCallback                                         
2001766d  ti_sysbios_family_arm_m3_Hwi_Instance_init                      
200176dd  ti_sysbios_heaps_HeapMem_allocUnprotected                       
2001774d  ti_sysbios_knl_Task_startup                                     
200177bd  __TI_decompress_lzss                                            
2001782d  __gedf2                                                         
2001782d  __gtdf2                                                         
2001789d  __cmpdf2                                                        
2001789d  __eqdf2                                                         
2001789d  __ledf2                                                         
2001789d  __ltdf2                                                         
2001789d  __nedf2                                                         
2001790d  ParseCmd                                                        
20017979  PinLockLevelSet                                                 
200179e5  Power_setDependency                                             
20017a51  Report                                                          
20017abd  SPIIntDisable                                                   
20017b29  UDMACC32XX_open                                                 
20017b95  _SlDrvCmdSend_noLock                                            
20017cd9  sem_wait_timeout                                                
20017d45  ti_sysbios_family_arm_m3_Hwi_dispatchC                          
20017db1  ti_sysbios_hal_Seconds_getTime                                  
20017e1d  ti_sysbios_knl_Clock_workFunc                                   
20017e89  PRCMPeripheralReset                                             
20017ef3  SPIIntEnable                                                    
20017f5b  macAddressParse                                                 
20017fc5  showCCAThreshHoldMenu                                           
2001802d  showTxMenu                                                      
20018095  ti_sysbios_knl_Clock_init                                       
200180fd  ti_sysbios_knl_Swi_run                                          
20018165  sl_WlanProfileDel                                               
200181cb  sl_WlanSetMode                                                  
20018231  NwpRegisterInterruptHandler                                     
20018295  SimpleLinkPingReport                                            
200182f9  printCountrycodeeUsage                                          
2001835d  printSoftRoamingEnableUsage                                     
200183c1  printTriggeredRoamingEnableUsage                                
20018425  pthread_cancel                                                  
20018489  radioTool_RxStart                                               
200184ed  showPHYConfMenu                                                 
20018551  ti_sysbios_hal_Seconds_setTime                                  
200185b5  ti_sysbios_knl_Idle_init                                        
20018619  SPIIntClear                                                     
2001867b  _SlNetAppHttpServerHdlr                                         
200186dd  _SlNetAppRequestHdlr                                            
20018741  __aeabi_dcmpeq                                                  
20018755  __aeabi_dcmplt                                                  
20018769  __aeabi_dcmple                                                  
2001877d  __aeabi_dcmpge                                                  
20018791  __aeabi_dcmpgt                                                  
200187a5  GPIO_write                                                      
20018805  ReplaceLine                                                     
20018865  UART2Support_dmaStopTx                                          
200188c5  _SlDrvSyncObjWaitTimeout                                        
20018925  sl_NetAppStart                                                  
20018985  sl_NetAppStop                                                   
200189e5  ti_sysbios_knl_Semaphore_post                                   
20018a45  ti_sysbios_knl_Swi_schedule                                     
20018aa5  FlashDisable                                                    
20018b01  PRCMHibernateWakeupSourceDisable                                
20018bb9  _SlIsEventRegistered                                            
20018c71  hexbyteStrtoASCII                                               
20018ccd  printAntSelectionEnableUsage                                    
20018d29  printCoexEnableUsage                                            
20018d85  printGetProfileUsage                                            
20018de1  pthread_exit                                                    
20018e3d  PRCMPeripheralClkEnable                                         
20018e97  _SlDeviceFatalErrorEvtHdlr                                      
20018ef1  _SlDeviceGeneralEvtHdlr                                         
20018f4b  _SlDrvGlobalObjUnLock                                           
20018fa5  _SlNetAppEvtHdlr                                                
20018fff  _SlNetAppRequestMemFree                                         
20019059  _SlSockEvtHdlr                                                  
200190b3  _SlWlanEvtHdlr                                                  
2001910d  SimpleLinkFatalErrorEventHandler                                
20019165  _SlDrvBasicCmd                                                  
20019215  cmdDeleteFilterCallback                                         
2001926d  main                                                            
200192c5  printP2PStartUsage                                              
2001931d  printP2PStopUsage                                               
20019375  showPreambleMenu                                                
200193cd  sl_NetAppMDNSUnRegisterService                                  
20019425  PRCMLPDSEnter                                                   
2001947b  __TI_ltoa                                                       
200194d1  HwiP_create                                                     
20019525  PowerCC32XX_setParkState                                        
20019579  Power_releaseDependency                                         
200195cd  PrintIPAddress                                                  
20019675  _SlFindAndReleasePendingCmd                                     
200196c9  cmdDisableFilterCallback                                        
2001971d  cmdEnableFilterCallback                                         
20019771  frexp                                                           
20019771  frexpl                                                          
200197c5  pthread_join                                                    
20019819  ti_sysbios_family_arm_m3_Timer_start                            
200198c1  GPIO_hwiIntFxn                                                  
20019911  NwpWaitForShutDownInd                                           
20019961  PRCMHibernateWakeupSourceEnable                                 
200199b1  _SlDrvCmdSend_noWait                                            
20019a01  is5GhzChannel                                                   
20019a51  printAPTransitionDisableUsage                                   
20019aa1  printAPTransitionEnableUsage                                    
20019af1  printAntSelectionDisableUsage                                   
20019b41  printCoexDisableUsage                                           
20019b91  printConnectedStationsUsage                                     
20019be1  printSoftRoamingDisableUsage                                    
20019c31  printTriggeredRoamingDisableUsage                               
20019c81  printWlanDisconnectUsage                                        
20019cd1  printWlanStopApUsage                                            
20019d21  ti_sysbios_knl_Swi_post                                         
20019d71  ti_sysbios_knl_Swi_runLoop                                      
20019dc1  FreeConnectCmd                                                  
20019e5d  ti_sysbios_heaps_HeapMem_freeUnprotected                        
20019eab  uDMAChannelAssign                                               
20019ef9  BIOS_startFunc                                                  
20019f45  GPIO_setInterruptConfig                                         
20019f91  PRCMLPDSRestoreInfoSet                                          
20019fdd  printDeleteFilterUsage                                          
2001a029  printDisableFilterUsage                                         
2001a075  printEnableFilterUsage                                          
2001a0c1  printTranceiverModeUsage                                        
2001a10d  ti_sysbios_knl_Swi_Instance_init                                
2001a159  UART2Support_dmaStopRx                                          
2001a1a3  _SlInternalSpawnWaitForEvent                                    
2001a1ed  sl_Htonl                                                        
2001a237  sl_Htons                                                        
2001a281  uDMAChannelSizeGet                                              
2001a2cd  BIOS_init                                                       
2001a315  PRCMIntEnable                                                   
2001a35d  PRCMPeripheralStatusGet                                         
2001a3a5  PinConfigGet                                                    
2001a3ed  UART2_readFull                                                  
2001a435  __aeabi_d2iz                                                    
2001a435  __fixdfsi                                                       
2001a47d  printHelpUsage                                                  
2001a4c5  realloc                                                         
2001a50d  sendConnectionReq                                               
2001a555  ti_sysbios_family_arm_m3_Hwi_create                             
2001a59d  ti_sysbios_family_arm_m3_Hwi_initStacks                         
2001a5e5  ti_sysbios_family_arm_m3_Timer_initDevice                       
2001a62d  ti_sysbios_hal_Seconds_getCount                                 
2001a675  ti_sysbios_heaps_HeapMem_Instance_init                          
2001a6bd  ti_sysbios_heaps_HeapMem_alloc                                  
2001a705  ti_sysbios_knl_Task_schedule                                    
2001a74d  ti_sysbios_runtime_Startup_exec                                 
2001a795  PRCMLPDSEnterKeepDebugIf                                        
2001a7db  RingBuf_put                                                     
2001a821  BIOS_atExitFunc                                                 
2001a865  CheckSubFrameType                                               
2001a8a9  GPIODirModeSet                                                  
2001a8ed  GPIO_disableInt                                                 
2001a931  GPIO_enableInt                                                  
2001a975  Power_releaseConstraint                                         
2001a9b9  SPI_init                                                        
2001a9fd  retCommand                                                      
2001aa41  showRxMenu                                                      
2001aa85  ti_sysbios_family_arm_m3_Hwi_Instance_finalize                  
2001aac9  ti_sysbios_family_arm_m3_Hwi_construct2                         
2001ab0d  ti_sysbios_family_arm_m3_Hwi_disableInterrupt                   
2001ab51  ti_sysbios_family_arm_m3_Hwi_enableInterrupt                    
2001ab95  ti_sysbios_family_arm_m3_Timer_setPeriodMicroSecs               
2001abd9  ti_sysbios_knl_Swi_restore                                      
2001ac1d  ti_sysbios_knl_Task_create                                      
2001ac61  FreeProfileCmd                                                  
2001aca3  PinModeSet                                                      
2001ace5  _SlInternalSpawnTaskEntry                                       
2001ad69  SPI_open                                                        
2001ada9  _SlDrvSyncObjWaitForever                                        
2001ade9  atoi                                                            
2001ae29  atol                                                            
2001ae69  printClearUsage                                                 
2001aea9  radioTool_TxStop                                                
2001aee9  strtok                                                          
2001af29  ti_sysbios_heaps_HeapMem_getStats                               
2001af69  ti_sysbios_knl_ClockSupport_init                                
2001afa9  ti_sysbios_knl_Task_exit                                        
2001afe9  uDMAChannelControlSet                                           
2001b029  PinDirModeSet                                                   
2001b067  sem_timedwait                                                   
2001b0e1  HwiP_construct                                                  
2001b11d  UDMACC32XX_init                                                 
2001b159  _SlDrvIsApiInProgress                                           
2001b195  _SlDrvProtectionObjLockWaitForever                              
2001b1d1  _SlDrvProtectionObjUnLock                                       
2001b20d  cmdAPTransitionDisablecallback                                  
2001b249  cmdAPTransitionEnablecallback                                   
2001b285  cmdTriggeredRoamingDisablecallback                              
2001b2c1  cmdWlanDisconnectCallback                                       
2001b2fd  ti_sysbios_heaps_HeapMem_construct                              
2001b339  ti_sysbios_knl_Task_blockI                                      
2001b375  ti_sysbios_knl_Task_restore                                     
2001b3b1  ti_sysbios_runtime_Memory_alloc                                 
2001b3ed  vsnprintf                                                       
2001b429  Mutex_create_handle                                             
2001b49d  InitTerm                                                        
2001b50d  Power_setConstraint                                             
2001b545  RingBuf_putAdvance                                              
2001b57d  UART2_rxEnable                                                  
2001b5b5  UDMACC32XX_close                                                
2001b5ed  __aeabi_f2iz                                                    
2001b5ed  __fixsfsi                                                       
2001b625  pthread_mutex_init                                              
2001b65d  sl_WlanDisconnect                                               
2001b695  ti_sysbios_family_arm_m3_Timer_Instance_finalize                
2001b6cd  ti_sysbios_knl_TaskSupport_buildTaskStack                       
2001b705  ti_sysbios_knl_Task_processVitalTaskFlag                        
2001b73d  __TI_auto_init_nobinit_nopinit                                  
2001b775  PinLock                                                         
2001b7ab  SPIFIFOLevelSet                                                 
2001b7e1  UARTCharPutNonBlocking                                          
2001b817  PinDirModeGet                                                   
2001b84b  PinModeGet                                                      
2001b87f  PowerCC32XX_parkPin                                             
2001b8b3  UART2_rxDisable                                                 
2001b91d  _pthread_cleanupFxn                                             
2001b951  cmdSoftRoamingDisablecallback                                   
2001b985  pthread_mutex_unlock                                            
2001b9b9  ti_sysbios_family_arm_m3_Hwi_getStackInfo                       
2001b9ed  ti_sysbios_family_arm_m3_Hwi_init                               
2001ba21  ti_sysbios_family_arm_m3_Timer_periodicStub                     
2001ba55  ti_sysbios_knl_Task_unblockI                                    
2001ba89  ti_sysbios_runtime_Error_raiseX                                 
2001babd  UART2Support_enableInts                                         
2001baef  _SlDrvObjLockWaitForever                                        
2001bb21  _SlDrvObjUnLock                                                 
2001bb53  _SlDrvSyncObjSignal                                             
2001bb85  ti_sysbios_knl_Semaphore_pendTimeout                            
2001bbb7  PRCMLPDSIntervalSet                                             
2001bbe7  PRCMSlowClkCtrFastGet                                           
2001bc17  _SlDrvStartMeasureTimeout                                       
2001bc79  clock_settime                                                   
2001bd09  ti_sysbios_family_arm_m3_Hwi_excHandlerMin                      
2001bd39  ti_sysbios_heaps_HeapMem_free                                   
2001bd69  ti_sysbios_knl_Clock_walkQueuePeriodic                          
2001bd99  ti_sysbios_knl_TaskSupport_start                                
2001bdc9  ti_sysbios_runtime_System_atexit                                
2001bdf9  ti_sysbios_runtime_System_processAtExit                         
2001be29  usleep                                                          
2001be59  GPIOIntStatus                                                   
2001be87  NwpPowerOn                                                      
2001beb5  RingBuf_getConsume                                              
2001bee3  RingBuf_putPointer                                              
2001bf11  UARTDisable                                                     
2001bf41  __aeabi_i2d                                                     
2001bf41  __floatsidf                                                     
2001bfc9  radioTool_Close                                                 
2001bff5  strstr                                                          
2001c021  ti_sysbios_family_arm_m3_Timer_construct                        
2001c04d  ti_sysbios_gates_GateMutex_enter                                
2001c079  ti_sysbios_knl_Task_restoreHwi                                  
2001c0a5  PRCMLPDSWakeUpGPIOSelect                                        
2001c0cf  PRCMPeripheralClkDisable                                        
2001c0f9  UARTIntStatus                                                   
2001c123  _SlFlowContSet                                                  
2001c14d  ti_sysbios_knl_Task_allBlockedFunction                          
2001c179  BIOS_registerRTSLock                                            
2001c1a1  List_remove                                                     
2001c1c9  PRCMSRAMRetentionEnable                                         
2001c1f1  PowerCC32XX_getParkState                                        
2001c219  SPIReset                                                        
2001c241  calloc                                                          
2001c269  radioTool_GetStats                                              
2001c291  sem_init                                                        
2001c2b9  showPowMenu                                                     
2001c2e1  sleep                                                           
2001c309  ti_sysbios_family_arm_m3_Hwi_excHandlerAsm                      
2001c331  ti_sysbios_family_arm_m3_Timer_oneShotStub                      
2001c359  ti_sysbios_family_arm_m3_Timer_setPeriod                        
2001c381  ti_sysbios_gates_GateMutex_Instance_init                        
2001c3a9  ti_sysbios_knl_Semaphore_Instance_init                          
2001c3d1  ti_sysbios_knl_Swi_init                                         
2001c3f9  ti_sysbios_knl_Task_construct                                   
2001c421  ti_sysbios_knl_Task_init                                        
2001c449  SPIDataGet                                                      
2001c471  BIOS_removeRTSLock                                              
2001c495  List_put                                                        
2001c4b9  Message                                                         
2001c4dd  PRCMLPDSWakeupSourceEnable                                      
2001c501  PowerCC32XX_restoreParkState                                    
2001c525  PowerCC32XX_restoreParkedPin                                    
2001c549  Power_registerNotify                                            
2001c56d  SPIDataPut                                                      
2001c591  SemaphoreP_createBinary                                         
2001c5b5  UART2Support_disableRx                                          
2001c5d9  __aeabi_ui2f                                                    
2001c5d9  __floatunsisf                                                   
2001c5fd  radioTool_RxStop                                                
2001c645  ti_sysbios_family_arm_m3_Hwi_construct                          
2001c669  ti_sysbios_family_arm_m3_Timer_postInit                         
2001c68d  ti_sysbios_family_arm_m3_Timer_startup                          
2001c6b1  ti_sysbios_knl_Semaphore_destruct                               
2001c6d5  ti_sysbios_knl_Task_enter                                       
2001c6f9  _c_int00                                                        
2001c71d  GPIOPinWrite                                                    
2001c73f  PinUnlock                                                       
2001c761  RingBuf_getPointer                                              
2001c783  SPIWordCountSet                                                 
2001c7a5  UART2Support_sendData                                           
2001c7c7  UART2_read                                                      
2001c7e9  strspn                                                          
2001c80d  HwiP_clearInterrupt                                             
2001c82d  PowerCC32XX_reset                                               
2001c84d  Power_unregisterNotify                                          
2001c86d  SemaphoreP_constructBinary                                      
2001c8ad  gpioButtonFxn1                                                  
2001c8cd  strcspn                                                         
2001c8ed  ti_sysbios_family_arm_m3_Hwi_delete                             
2001c90d  ti_sysbios_family_arm_m3_Hwi_initStack                          
2001c92d  ti_sysbios_knl_Clock_addI                                       
2001c94d  ti_sysbios_knl_Clock_tick                                       
2001c96d  ti_sysbios_knl_Semaphore_delete                                 
2001c98d  ti_sysbios_knl_TaskSupport_swap                                 
2001c994  ti_sysbios_knl_TaskSupport_swapReturn                           
2001c9ad  ti_sysbios_knl_Task_delete                                      
2001c9cd  ti_sysbios_knl_Task_destruct                                    
2001c9ed  FreeStartApCmd                                                  
2001ca0b  FreemDNSAdvertiseCmd                                            
2001ca29  PinTypeSPI                                                      
2001ca47  PinTypeUART                                                     
2001ca65  UART2_writeTimeout                                              
2001ca83  UARTEnable                                                      
2001caa1  memccpy                                                         
2001cabf  ti_sysbios_family_arm_m3_Hwi_switchAndRunFunc                   
2001cadd  ti_sysbios_knl_Semaphore_create                                 
2001cafb  uDMAChannelDisable                                              
2001cb19  uDMAChannelEnable                                               
2001cb37  uDMAChannelIsEnabled                                            
2001cb55  BIOS_rtsLock                                                    
2001cb71  GPIO_clearInt                                                   
2001cb8d  GPIO_setCallback                                                
2001cbc5  _SlInternalIsItSpawnThread                                      
2001cbe1  free                                                            
2001cbfd  getch                                                           
2001cc19  putch                                                           
2001cc35  ti_sysbios_knl_Idle_run                                         
2001cc51  ti_sysbios_knl_Queue_put                                        
2001cc6d  ti_sysbios_knl_Semaphore_construct                              
2001cc89  GPIOIntDisable                                                  
2001ccd7  PRCMHIBRegRead                                                  
2001ccf1  PRCMHIBRegWrite                                                 
2001cd0b  PRCMLPDSWakeupSourceDisable                                     
2001cd25  PinToPadGet                                                     
2001cd3f  SPIDmaDisable                                                   
2001cd59  SPIFIFODisable                                                  
2001cd73  UARTFlowControlSet                                              
2001cda7  ti_sysbios_knl_Task_sleepTimeout                                
2001cdc1  BIOS_exitFunc                                                   
2001cdd9  BIOS_rtsUnlock                                                  
2001cdf1  GPIOIntEnable                                                   
2001ce09  SPIDmaEnable                                                    
2001ce21  SPIFIFOEnable                                                   
2001ce39  _SlDrvMemZero                                                   
2001ce69  printBorder                                                     
2001ce81  pthread_attr_init                                               
2001ceb1  ti_sysbios_family_arm_m3_Timer_stop                             
2001cec9  ti_sysbios_knl_TaskSupport_glue                                 
2001cee1  ti_sysbios_knl_Task_unblock                                     
2001cef9  Board_init                                                      
2001cf0f  HwiP_interruptsEnabled                                          
2001cf25  SPICSDisable                                                    
2001cf3b  SPICSEnable                                                     
2001cf51  SPIDisable                                                      
2001cf67  SPIEnable                                                       
2001cf7d  UARTCharsAvail                                                  
2001cf93  UARTDMADisable                                                  
2001cfa9  UARTFIFOLevelSet                                                
2001cfbf  UARTIntDisable                                                  
2001cfeb  isChannelAt                                                     
2001d001  CPUcpsid                                                        
2001d015  CPUcpsie                                                        
2001d051  Power_disablePolicy                                             
2001d065  Power_getTransitionLatency                                      
2001d079  Power_idleFunc                                                  
2001d08d  SimpleLinkGeneralEventHandler                                   
2001d0a1  UARTDMAEnable                                                   
2001d0b5  UARTIntEnable                                                   
2001d0c9  _SlDrvDispatchHttpServerEvents                                  
2001d0dd  _SlDrvDispatchNetAppRequestEvents                               
2001d0f1  _SlDrvIsSpawnOwnGlobalLock                                      
2001d105  __aeabi_uldivmod                                                
2001d119  _args_main                                                      
2001d12d  pthread_attr_setschedparam                                      
2001d141  pthread_mutex_destroy                                           
2001d155  pthread_mutexattr_init                                          
2001d169  ti_sysbios_family_arm_m3_Hwi_switchFromBootStack                
2001d17d  ti_sysbios_knl_ClockSupport_setPeriodMicroSecs                  
2001d191  uDMAControlBaseSet                                              
2001d1a5  uDMAIntClear                                                    
2001d1b9  FreePingCmd                                                     
2001d1cb  FreeRecvCmd                                                     
2001d1dd  FreeSendCmd                                                     
2001d1ef  GPIOIntClear                                                    
2001d201  _SlDrvResetCmdExt                                               
2001d237  spi_Close                                                       
2001d25b  ti_sysbios_hal_Seconds_set                                      
2001d26d  TI_memcpy_small                                                 
2001d281  ClockP_getCpuFreq                                               
2001d291  HwiP_Params_init                                                
2001d2d1  PowerCC32XX_getWakeup                                           
2001d2e1  Power_enablePolicy                                              
2001d2f1  RingBuf_construct                                               
2001d301  UART2Support_txDone                                             
2001d311  UARTBusy                                                        
2001d321  UARTIntClear                                                    
2001d331  UARTRxErrorGet                                                  
2001d351  ti_sysbios_family_arm_m3_Hwi_excHandler                         
2001d361  wcslen                                                          
2001d371  __TI_zero_init                                                  
2001d381  NwpMaskInterrupt                                                
2001d38f  NwpUnMaskInterrupt                                              
2001d3ab  UART2_write                                                     
2001d3c7  sem_wait                                                        
2001d3d5  sl_Task                                                         
2001d445  ti_sysbios_gates_GateMutex_leave                                
2001d453  ti_sysbios_knl_Clock_tickReconfig                               
2001d461  uDMAEnable                                                      
2001d46f  uDMAErrorStatusClear                                            
2001d47d  TI_memset_small                                                 
2001d48b  __TI_decompress_none                                            
2001d499  BIOS_linkedWithIncorrectBootLibrary                             
2001d4a5  BIOS_start                                                      
2001d4b1  CPUwfi                                                          
2001d4bd  ClearTerm                                                       
2001d4c9  ClockP_getSystemTicks                                           
2001d4d5  HwiP_delete                                                     
2001d4e1  HwiP_disable                                                    
2001d51d  PRCMLPDSWakeupCauseGet                                          
2001d529  PowerCC32XX_initPolicy                                          
2001d535  Power_getConstraintMask                                         
2001d541  SPI_Params_init                                                 
2001d54d  SemaphoreP_delete                                               
2001d565  UART2Support_disableTx                                          
2001d571  UART2Support_enableRx                                           
2001d57d  UART2Support_enableTx                                           
2001d589  UART2_Params_init                                               
2001d595  _register_lock                                                  
2001d5a1  _register_unlock                                                
2001d5ad  pthread_attr_setdetachstate                                     
2001d5b9  pthread_mutexattr_settype                                       
2001d5c5  pthread_self                                                    
2001d5d1  ti_sysbios_heaps_HeapMem_init                                   
2001d5dd  ti_sysbios_knl_ClockSupport_start                               
2001d5e9  ti_sysbios_knl_ClockSupport_stop                                
2001d5f5  uDMAControlBaseGet                                              
2001d601  uDMAErrorStatusGet                                              
2001d68f  SemaphoreP_pend                                                 
2001d699  _SlDeviceResetRequestInitCompletedCB                            
2001d6a5  __aeabi_memset                                                  
2001d6a5  __aeabi_memset4                                                 
2001d6a5  __aeabi_memset8                                                 
2001d6af  cmdClearcallback                                                
2001d6c3  sem_destroy                                                     
2001d6cd  sem_post                                                        
2001d73f  PRCMSleepEnter                                                  
2001d747  TimerGetCurrentTimestamp                                        
2001d74f  UtilsDelay                                                      
2001d759  __aeabi_errno_addr                                              
2001d761  __aeabi_memclr                                                  
2001d761  __aeabi_memclr4                                                 
2001d761  __aeabi_memclr8                                                 
2001d771  pthread_mutex_lock                                              
2001d779  sem_getvalue                                                    
2001d781  ti_sysbios_runtime_System_exit                                  
2001d789  ClockP_getSystemTickPeriod                                      
2001d78f  HwiP_restore                                                    
2001d7e9  SPICC32XXDMA_control                                            
2001d7ef  SPI_close                                                       
2001d7f5  SPI_transfer                                                    
2001d7fb  UART2Support_powerRelConstraint                                 
2001d801  UART2Support_powerSetConstraint                                 
2001d807  pthread_attr_setstacksize                                       
2001d80d  ti_sysbios_family_arm_m3_Hwi_destruct                           
2001d813  ti_sysbios_family_arm_m3_Hwi_doSwiRestore                       
2001d819  ti_sysbios_family_arm_m3_Hwi_doTaskRestore                      
2001d81f  ti_sysbios_knl_Idle_loop                                        
2001d825  ti_sysbios_knl_Swi_startup                                      
2001d82b  HwiP_disableInterrupt                                           
2001d82f  HwiP_enableInterrupt                                            
2001d833  RingBuf_getCount                                                
2001d837  SPICC32XXDMA_init                                               
2001d83b  SemaphoreP_destruct                                             
2001d83f  SemaphoreP_post                                                 
2001d845  __aeabi_memcpy                                                  
2001d845  __aeabi_memcpy4                                                 
2001d845  __aeabi_memcpy8                                                 
2001d849  _system_post_cinit                                              
2001d84d  malloc                                                          
2001d851  ti_sysbios_heaps_HeapMem_isBlocking                             
2001d858  __primary_heap_start__                                          
20025858  __primary_heap_end__                                            
20025b00  __aeabi_ctype_table_                                            
20025b00  __aeabi_ctype_table_C                                           
20026774  spiCC32XXDMAHWAttrs                                             
200269be  OpcodeTranslateTable                                            
20027b74  _SlActionLookupTable                                            
20028de0  PowerCC32XX_config                                              
2002a4d4  SimpleLinkWifiCC32XX_config                                     
2002b244  UART2_defaultParams                                             
2002b4db  GPIO_pinUpperBound                                              
2002b4fc  SPI_defaultParams                                               
2002bbc4  SPICC32XXDMA_fxnTable                                           
2002bbdc  SPI_config                                                      
2002c050  GPIO_config                                                     
2002c288  udmaCC3220SHWAttrs                                              
2002c37f  SPI_count                                                       
2002c380  UART2_config                                                    
2002c388  UDMACC32XX_config                                               
2002c3f0  ti_sysbios_knl_Idle_funcList                                    
2002c49f  UART2_count                                                     
2002c4a0  TimestampP_nativeFormat32                                       
2002c4a4  TimestampP_nativeFormat64                                       
2002c4c8  _SlNetAppSendResponseCmdCtrl                                    
2002c4cc  _SlNetAppSendTokenValueCmdCtrl                                  
2002c4f0  _SlProvisioningCmdCtrl                                          
2002c564  ti_sysbios_family_arm_m3_Hwi_swiTaskKeyAddress                  
2002c800  app_CB                                                          
2002d09c  Rx_frame                                                        
2002d678  Tx_frame                                                        
2002dc54  ti_sysbios_family_arm_m3_Hwi_dispatchTable                      
2002df60  spiCC32XXDMAObjects                                             
2002e400  g_CB                                                            
2002e7fc  ti_sysbios_family_arm_m3_Timer_startupNeeded                    
2002e800  ti_sysbios_knl_Idle_taskStack                                   
2002ea00  uart2CC32XXObjects0                                             
2002eb78  PowerCC32XX_contextSave                                         
2002eca4  gpioCallbackFunctions                                           
2002ed28  gpioUserArgs                                                    
2002edac  ti_sysbios_knl_Swi_readyQs                                      
2002ee2c  ti_sysbios_knl_Task_readyQs                                     
2002eeac  ti_sysbios_knl_Idle_taskStruct                                  
2002ef04  app_CH                                                          
2002ef44  ti_sysbios_knl_ClockSupport_timerStruct                         
2002ef78  BIOS_heapMemObject                                              
2002efa4  GlobalLockObj                                                   
2002efd0  BIOS_rtsGate                                                    
2002eff8  g_SlInternalSpawnCB                                             
2002f020  ti_sysbios_heaps_HeapMem_gate                                   
2002f0ac  ti_sysbios_runtime_System_atexitHandlers                        
2002f0e8  ti_sysbios_hal_Seconds_Module_state                             
2002f0fc  DeviceCB                                                        
2002f108  Msg                                                             
2002f114  spiCC32XXSDMAscratchBuf                                         
2002f11c  udmaCC3220SObject                                               
2002f124  ti_sysbios_family_arm_m3_TimestampProvider_Module_state         
2002f128  ti_sysbios_knl_Task_defaultStackHeap                            
2002f12c  radioTool_rawSocketdesc                                         
2002f12e  RxIrqCnt                                                        
2002f130  gCmdList                                                        
2002f2d4  PowerCC32XX_module                                              
2002f440  parkInfo                                                        
2002f538  ap_start_UsageStr                                               
2002f618  wlanConnectUsageStr                                             
2002f6af  createFilterUsageStr                                            
2002f73c  addProfileUsageStr                                              
2002f7c5  mDNSAdvertiseUsageStr                                           
2002f84c  gpioPinConfigs                                                  
2002f8d0  setPolicyUsageStr                                               
2002f953  send_c_optionDetailsStr                                         
2002f9cd  pingUsageStr                                                    
2002fa3d  V_optionStr                                                     
2002fa40  BIOS_Module_state                                               
2002fa6c  ti_sysbios_family_arm_m3_Hwi_Module_state                       
2002faa8  ti_sysbios_knl_Clock_Module_state                               
2002fb10  recv_Note_optionDetailsStr                                      
2002fb6e  sendUsage1Str                                                   
2002fbcb  gGlobalLockCntReleased                                          
2002fbcc  ti_sysbios_runtime_Startup_done                                 
2002fbcf  ti_sysbios_knl_Idle_initDone                                    
2002fbd0  ti_sysbios_runtime_Memory_defaultHeapInstance                   
2002fbe8  ti_sysbios_runtime_Error_ignore                                 
2002fbf4  ti_sysbios_runtime_System_Module_state                          
2002fc00  ti_sysbios_knl_Swi_Module_state                                 
2002fc28  mDNSdQueryUsageStr                                              
2002fc7f  sendUsage2Str                                                   
2002fccd  enableWoWLANUsageStr                                            
2002fd15  a_optionStr                                                     
2002fd18  DataFrames_str                                                  
2002fd58  radiotoolDetailsStr                                             
2002fd94  ti_sysbios_knl_Task_Module_state                                
2002fdd0  send_p_optionDetailsStr                                         
2002fe0b  send_nb_optionDetailsStr                                        
2002fe44  send_n_optionDetailsStr                                         
2002fe7c  send_n_r_optionDetailsStr                                       
2002feb3  gGlobalLockCntRequested                                         
2002feb4  MangmentFrames_str                                              
2002fee4  scanUsageStr                                                    
2002ff11  CtrlFrames                                                      
2002ff19  MgmtFrames                                                      
2002ff25  DataFrames                                                      
2002ff35  SetCountryCodeUsageStr                                          
2002ff59  c_optionStr                                                     
2002ff5c  g_LibsEvents                                                    
2002ff80  g_UserEvents                                                    
2002ffa4  send_6_optionDetailsStr                                         
2002ffc6  TriggeredRoamingEnableUsageStr                                  
2002ffe7  gSaveCursorPosition                                             
2002ffe8  CtrlFrames_str                                                  
20030008  send_u_optionDetailsStr                                         
20030028  SoftRoamingEnableUsageStr                                       
20030046  getProfileUsageStr                                              
20030061  send_s_optionDetailsStr                                         
2003007c  Template_Hdr                                                    
20030096  g_SlDeviceStatus                                                
200300b0  APTransitionDisablecmdStr                                       
200300c4  AntSelectionDisablecmdStr                                       
200300ec  ti_sysbios_family_arm_m3_Timer_Module_state                     
20030100  APTransitionEnablecmdStr                                        
20030113  AntSelectionEnablecmdStr                                        
20030126  ConnectedStationsStr                                            
20030139  SoftRoamingDisablecmdStr                                        
2003014c  TriggeredRoamingDisablecmdStr                                   
2003015f  helpUsageStr                                                    
20030172  SoftRoamingEnablecmdStr                                         
20030184  TriggeredRoamingEnablecmdStr                                    
20030196  radiotool_PromptStr                                             
200301b8  wlanDisconnectStr                                               
200301c7  FRAME_SUBTYPE_str                                               
200301d5  ap_start_str                                                    
200301e3  disableFilterStr                                                
200301f1  mDNSAdvertiseStr                                                
200301ff  ap_stop_str                                                     
2003020c  createFilterStr                                                 
20030219  deleteFilterStr                                                 
20030226  enableFilterStr                                                 
20030233  enableWoWLANStr                                                 
20030240  AntSelectionEnableUsageStr                                      
2003024c  CoexDisablecmdStr                                               
20030258  CoexEnableUsageStr                                              
20030264  ConnectedStationsUsageStr                                       
20030270  SetCountryCodeStr                                               
2003027c  ap_stop_UsageStr                                                
20030288  wlanConnectStr                                                  
20030294  wlanDisconnectUsageStr                                          
200302a0  AddProfileStr                                                   
200302ab  CoexEnablecmdStr                                                
200302b6  FRAME_TYPE_str                                                  
200302c1  GetProfileStr                                                   
200302cc  usageStr                                                        
200302d7  APTransitionDisableUsageStr                                     
200302e1  APTransitionEnableUsageStr                                      
200302eb  AntSelectionDisableUsageStr                                     
200302f5  CoexDisableUsageStr                                             
200302ff  SoftRoamingDisableUsageStr                                      
20030309  TriggeredRoamingDisableUsageStr                                 
20030313  WPA2_PLUS_str                                                   
2003031d  mDNSQueryStr                                                    
20030327  radiotool_Str                                                   
20030331  setPolicyStr                                                    
2003033b  WPAWPA2_str                                                     
20030344  p2pStartcmdStr                                                  
2003034d  d_optionStr                                                     
20030358  PATTERN_str                                                     
20030360  p2pStopcmdStr                                                   
20030368  ti_sysbios_gates_GateMutex_Module_state                         
20030370  ti_sysbios_heaps_HeapMem_Module_state                           
20030378  ti_sysbios_knl_Semaphore_Module_state                           
20030380  BSSID_str                                                       
20030386  DESTINATION_MAC_str                                             
2003038c  SOURCE_MAC_str                                                  
20030392  clearStr                                                        
20030398  cmdPromptStr                                                    
2003039e  help_optionStr                                                  
200303a4  D_IP_str                                                        
200303a9  OPEN_str                                                        
200303ae  S_IP_str                                                        
200303b3  WPA2_str                                                        
200303b8  WPA3_str                                                        
200303bd  dns_optionStr                                                   
200303c2  ent_optionStr                                                   
200303c7  helpStr                                                         
200303cc  mac_optionStr                                                   
200303d1  pingStr                                                         
200303d6  recvStr                                                         
200303db  scanStr                                                         
200303e0  sendStr                                                         
200303e5  ttl_optionStr                                                   
200303ea  txpow_optionStr                                                 
200303ef  gStackFull                                                      
200303f0  APTransitionDisableDetailsStr                                   
200303f4  APTransitionEnableDetailsStr                                    
200303f8  AntSelectionDisableDetailsStr                                   
200303fc  AntSelectionEnableDetailsStr                                    
20030400  AntSelectionEnable_Note_optionDetailsStr                        
20030404  CoexDisableDetailsStr                                           
20030408  CoexEnableDetailsStr                                            
2003040c  CoexEnable_Note_optionDetailsStr                                
20030410  ConnectedStationsDetailsStr                                     
20030414  CountryCodeDetailsStr                                           
20030418  CountryCode_Note_optionDetailsStr                               
2003041c  CountryCode_g_optionDetailsStr                                  
20030420  SoftRoamingDisableDetailsStr                                    
20030424  SoftRoamingEnableDetailsStr                                     
20030428  SoftRoamingEnable_Note_optionDetailsStr                         
2003042c  SoftRoamingEnable_r_optionDetailsStr                            
20030430  TriggeredRoamingDisableDetailsStr                               
20030434  TriggeredRoamingEnableDetailsStr                                
20030438  TriggeredRoaming_r_optionDetailsStr                             
2003043c  Txtask_m10_optionDetailsStr                                     
20030440  Txtask_m11_optionDetailsStr                                     
20030444  Txtask_m12_optionDetailsStr                                     
20030448  Txtask_m13_optionDetailsStr                                     
2003044c  Txtask_m14_optionDetailsStr                                     
20030450  Txtask_m15_optionDetailsStr                                     
20030454  Txtask_m16_optionDetailsStr                                     
20030458  Txtask_m17_optionDetailsStr                                     
2003045c  Txtask_m18_optionDetailsStr                                     
20030460  Txtask_m19_optionDetailsStr                                     
20030464  Txtask_m1_optionDetailsStr                                      
20030468  Txtask_m20_optionDetailsStr                                     
2003046c  Txtask_m21_optionDetailsStr                                     
20030470  Txtask_m2_optionDetailsStr                                      
20030474  Txtask_m3_optionDetailsStr                                      
20030478  Txtask_m4_optionDetailsStr                                      
2003047c  Txtask_m5_optionDetailsStr                                      
20030480  Txtask_m6_optionDetailsStr                                      
20030484  Txtask_m7_optionDetailsStr                                      
20030488  Txtask_m8_optionDetailsStr                                      
2003048c  Txtask_m9_optionDetailsStr                                      
20030490  Txtask_m_optionDetailsStr                                       
20030494  Txtask_p0_optionDetailsStr                                      
20030498  Txtask_p1_optionDetailsStr                                      
2003049c  Txtask_p2_optionDetailsStr                                      
200304a0  Txtask_p3_optionDetailsStr                                      
200304a4  Txtask_p4_optionDetailsStr                                      
200304a8  Txtask_p_optionDetailsStr                                       
200304ac  Txtask_tone_optionDetailsStr                                    
200304b0  Txtask_txp_optionDetailsStr                                     
200304b4  WEP_str                                                         
200304b8  WPA_str                                                         
200304bc  WPS_str                                                         
200304c0  __aeabi_errno                                                   
200304c4  _lock                                                           
200304c8  _unlock                                                         
200304cc  ap_start_DetailsStr                                             
200304d0  ap_start_channel_optionDetailsStr                               
200304d4  ap_start_h_optionDetailsStr                                     
200304d8  ap_start_l_optionDetailsStr                                     
200304dc  ap_start_txp_optionDetailsStr                                   
200304e0  ap_stop_DetailsStr                                              
200304e4  cca_th1_optionDetailStr                                         
200304e8  cca_th2_optionDetailStr                                         
200304ec  cca_th3_optionDetailStr                                         
200304f0  cca_th4_optionDetailStr                                         
200304f4  cca_th5_optionDetailStr                                         
200304f8  cca_th6_optionDetailStr                                         
200304fc  cca_th_optionDetailStr                                          
20030500  clearDetailsStr                                                 
20030504  createFilter_a_optionDetailsStr                                 
20030508  createFilter_e_optionDetailsStr                                 
2003050c  createFilter_f_optionDetailsStr                                 
20030510  createFilter_i_optionDetailsStr                                 
20030514  createFilter_m_optionDetailsStr                                 
20030518  createFilter_o_optionDetailsStr                                 
2003051c  createFilter_v_optionDetailsStr                                 
20030520  creteFilterDetailsStr                                           
20030524  deleteFilterDetailsStr                                          
20030528  descriptionStr                                                  
2003052c  disableFilterDetailsStr                                         
20030530  enableFilterDetailsStr                                          
20030534  enableWoWLANDetailsStr                                          
20030538  enableWoWLAN_Note_optionDetailsStr                              
2003053c  enableWoWLAN_i_optionDetailsStr                                 
20030540  enableWoWLAN_u_optionDetailsStr                                 
20030544  enableWoWLAN_v_optionDetailsStr                                 
20030548  ext_optionStr                                                   
2003054c  gMaxCmd                                                         
20030550  gSpawn_thread                                                   
20030554  g_intHandle                                                     
20030558  g_pCB                                                           
2003055c  gw_optionStr                                                    
20030560  helpDetailsStr                                                  
20030564  help_optaionDetails                                             
20030568  ip_optionStr                                                    
20030570  mDNSAdvertiseDetailsStr                                         
20030574  mDNSAdvertise_n_optionDetailsStr                                
20030578  mDNSAdvertise_p_optionDetailsStr                                
2003057c  mDNSAdvertise_so_optionDetailsStr                               
20030580  mDNSAdvertise_st_optionDetailsStr                               
20030584  mDNSAdvertise_t_optionDetailsStr                                
20030588  mDNSAdvertise_ttl_optionDetailsStr                              
2003058c  mDNSdQueryDetailsStr                                            
20030590  mDNSdQuery_n_optionDetailsStr                                   
20030594  mDNSdQuery_o_optionDetailsStr                                   
20030598  mDNSdQuery_so_optionDetailsStr                                  
2003059c  mDNSdQuery_st_optionDetailsStr                                  
200305a0  nb_optionStr                                                    
200305a4  p2pStartDetailsStr                                              
200305a8  p2pStopDetailsStr                                               
200305ac  pPingCallBackFunc                                               
200305b0  pingDetailsStr                                                  
200305b4  ping_c_optionDetailsStr                                         
200305b8  ping_h_optionDetailsStr                                         
200305bc  ping_i_optionDetailsStr                                         
200305c0  ping_s_optionDetailsStr                                         
200305c4  ping_t_optionDetailsStr                                         
200305c8  priority_optionStr                                              
200305cc  recvDetailsStr                                                  
200305d0  recvUsage1Str                                                   
200305d4  recvUsage2Str                                                   
200305d8  recv_6_optionDetailsStr                                         
200305dc  recv_c_optionDetailsStr                                         
200305e0  recv_nb_optionDetailsStr                                        
200305e4  recv_p_optionDetailsStr                                         
200305e8  recv_s_optionDetailsStr                                         
200305ec  recv_u_optionDetailsStr                                         
200305f0  scanDetailsStr                                                  
200305f4  scan_Note_optionDetailsStr                                      
200305f8  scan_ext_optionDetailsStr                                       
200305fc  scan_n_optionDetailsStr                                         
20030600  sendDetailsStr                                                  
20030604  setPolicyDetailsStr                                             
20030608  setPolicy_c_optionDetailsStr                                    
2003060c  setPolicy_d_optionDetailsStr                                    
20030610  setPolicy_h_optionDetailsStr                                    
20030614  setPolicy_i_optionDetailsStr                                    
20030618  setPolicy_o_optionDetailsStr                                    
2003061c  setPolicy_r_optionDetailsStr                                    
20030620  so_optionStr                                                    
20030624  st_optionStr                                                    
20030628  wlanAddProfileDetailsStr                                        
2003062c  wlanConnectDetailsStr                                           
20030630  wlanConnect_dns_optionDetailsStr                                
20030634  wlanConnect_ent_optionDetailStr                                 
20030638  wlanConnect_gw_optionDetailsStr                                 
2003063c  wlanConnect_ip_optionDetailsStr                                 
20030640  wlanConnect_p_optionDetailsStr                                  
20030644  wlanConnect_s_optionDetailsStr                                  
20030648  wlanConnect_t_optionDetailsStr                                  
2003064c  wlanDisConnectDetailsStr                                        
20030650  wlanGetProfileDetailsStr                                        
20030654  wlanProfile_i_optionDetailsStr                                  
20030658  wlanProfile_mac_optionDetailsStr                                
2003065c  wlanProfile_pr_optionDetailsStr                                 
20030660  e_optionStr                                                     
20030663  f_optionStr                                                     
20030666  g_optionStr                                                     
20030669  h_optionStr                                                     
2003066c  i_optionStr                                                     
2003066f  l_optionStr                                                     
20030672  lineBreak                                                       
20030675  m_optionStr                                                     
20030678  n_optionStr                                                     
2003067b  o_optionStr                                                     
2003067e  p_optionStr                                                     
20030681  r_optionStr                                                     
20030684  s_optionStr                                                     
20030687  t_optionStr                                                     
2003068a  u_optionStr                                                     
2003068d  v_optionStr                                                     
20030690  space_str                                                       
20030800  ti_sysbios_family_arm_m3_Hwi_ramVectors                         
20030b0c  __TI_static_base__                                              
20031724  __TI_Handler_Table_Base                                         
20031730  __TI_Handler_Table_Limit                                        
20031738  __TI_CINIT_Base                                                 
20031748  __TI_CINIT_Limit                                                
20031748  __TI_CINIT_Warm                                                 
ffffffff  __TI_pprof_out_hndl                                             
ffffffff  __TI_prof_data_size                                             
ffffffff  __TI_prof_data_start                                            
ffffffff  __binit__                                                       
ffffffff  binit                                                           
UNDEFED   ITM_flush                                                       
UNDEFED   ITM_restore                                                     
UNDEFED   __c_args__                                                      
UNDEFED   __mpu_init                                                      

[1131 symbols]
